	.cpu cortex-m4
	.arch armv7e-m
	.fpu fpv4-sp-d16
	.eabi_attribute 27, 1
	.eabi_attribute 28, 1
	.eabi_attribute 20, 1
	.eabi_attribute 21, 1
	.eabi_attribute 23, 3
	.eabi_attribute 24, 1
	.eabi_attribute 25, 1
	.eabi_attribute 26, 1
	.eabi_attribute 30, 6
	.eabi_attribute 34, 1
	.eabi_attribute 38, 1
	.eabi_attribute 18, 4
	.file	"ares_sbus.c"
	.text
.Ltext0:
	.cfi_sections	.debug_frame
	.file 1 "/home/librgod/zephyr_workspace/motor/drivers/transfer/ares_sbus.c"
	.section	.text.device_is_ready,"ax",%progbits
	.align	1
	.syntax unified
	.thumb
	.thumb_func
	.type	device_is_ready, %function
device_is_ready:
.LFB25:
	.file 2 "/home/librgod/zephyr_workspace/motor/build/zephyr/include/generated/zephyr/syscalls/device.h"
	.loc 2 50 1
	.cfi_startproc
	@ args = 0, pretend = 0, frame = 8
	@ frame_needed = 1, uses_anonymous_args = 0
	push	{r7, lr}
	.cfi_def_cfa_offset 8
	.cfi_offset 7, -8
	.cfi_offset 14, -4
	sub	sp, sp, #8
	.cfi_def_cfa_offset 16
	add	r7, sp, #0
	.cfi_def_cfa_register 7
	str	r0, [r7, #4]
	.loc 2 57 7
	.loc 2 58 9
	ldr	r0, [r7, #4]
	bl	z_impl_device_is_ready
	mov	r3, r0
	.loc 2 59 1
	mov	r0, r3
	adds	r7, r7, #8
	.cfi_def_cfa_offset 8
	mov	sp, r7
	.cfi_def_cfa_register 13
	@ sp needed
	pop	{r7, pc}
	.cfi_endproc
.LFE25:
	.size	device_is_ready, .-device_is_ready
	.section	.text.z_impl_uart_configure,"ax",%progbits
	.align	1
	.syntax unified
	.thumb
	.thumb_func
	.type	z_impl_uart_configure, %function
z_impl_uart_configure:
.LFB34:
	.file 3 "/home/librgod/zephyr_workspace/zephyr/include/zephyr/drivers/uart/uart_internal.h"
	.loc 3 202 1
	.cfi_startproc
	@ args = 0, pretend = 0, frame = 16
	@ frame_needed = 1, uses_anonymous_args = 0
	push	{r7, lr}
	.cfi_def_cfa_offset 8
	.cfi_offset 7, -8
	.cfi_offset 14, -4
	sub	sp, sp, #16
	.cfi_def_cfa_offset 24
	add	r7, sp, #0
	.cfi_def_cfa_register 7
	str	r0, [r7, #4]
	str	r1, [r7]
	.loc 3 204 32
	ldr	r3, [r7, #4]
	ldr	r3, [r3, #8]
	str	r3, [r7, #12]
	.loc 3 206 9
	ldr	r3, [r7, #12]
	ldr	r3, [r3, #36]
	.loc 3 206 5
	cmp	r3, #0
	bne	.L4
	.loc 3 207 10
	mvn	r3, #87
	b	.L5
.L4:
	.loc 3 209 12
	ldr	r3, [r7, #12]
	ldr	r3, [r3, #36]
	.loc 3 209 9
	ldr	r1, [r7]
	ldr	r0, [r7, #4]
	blx	r3
.LVL0:
	mov	r3, r0
.L5:
	.loc 3 215 1
	mov	r0, r3
	adds	r7, r7, #16
	.cfi_def_cfa_offset 8
	mov	sp, r7
	.cfi_def_cfa_register 13
	@ sp needed
	pop	{r7, pc}
	.cfi_endproc
.LFE34:
	.size	z_impl_uart_configure, .-z_impl_uart_configure
	.section	.text.uart_callback_set,"ax",%progbits
	.align	1
	.syntax unified
	.thumb
	.thumb_func
	.type	uart_callback_set, %function
uart_callback_set:
.LFB53:
	.loc 3 487 1
	.cfi_startproc
	@ args = 0, pretend = 0, frame = 24
	@ frame_needed = 1, uses_anonymous_args = 0
	push	{r7, lr}
	.cfi_def_cfa_offset 8
	.cfi_offset 7, -8
	.cfi_offset 14, -4
	sub	sp, sp, #24
	.cfi_def_cfa_offset 32
	add	r7, sp, #0
	.cfi_def_cfa_register 7
	str	r0, [r7, #12]
	str	r1, [r7, #8]
	str	r2, [r7, #4]
	.loc 3 489 32
	ldr	r3, [r7, #12]
	ldr	r3, [r3, #8]
	str	r3, [r7, #20]
	.loc 3 491 9
	ldr	r3, [r7, #20]
	ldr	r3, [r3]
	.loc 3 491 5
	cmp	r3, #0
	bne	.L7
	.loc 3 492 10
	mvn	r3, #87
	b	.L8
.L7:
	.loc 3 495 12
	ldr	r3, [r7, #20]
	ldr	r3, [r3]
	.loc 3 495 9
	ldr	r2, [r7, #4]
	ldr	r1, [r7, #8]
	ldr	r0, [r7, #12]
	blx	r3
.LVL1:
	mov	r3, r0
.L8:
	.loc 3 502 1
	mov	r0, r3
	adds	r7, r7, #24
	.cfi_def_cfa_offset 8
	mov	sp, r7
	.cfi_def_cfa_register 13
	@ sp needed
	pop	{r7, pc}
	.cfi_endproc
.LFE53:
	.size	uart_callback_set, .-uart_callback_set
	.section	.text.z_impl_uart_rx_enable,"ax",%progbits
	.align	1
	.syntax unified
	.thumb
	.thumb_func
	.type	z_impl_uart_rx_enable, %function
z_impl_uart_rx_enable:
.LFB57:
	.loc 3 552 1
	.cfi_startproc
	@ args = 0, pretend = 0, frame = 24
	@ frame_needed = 1, uses_anonymous_args = 0
	push	{r4, r7, lr}
	.cfi_def_cfa_offset 12
	.cfi_offset 4, -12
	.cfi_offset 7, -8
	.cfi_offset 14, -4
	sub	sp, sp, #28
	.cfi_def_cfa_offset 40
	add	r7, sp, #0
	.cfi_def_cfa_register 7
	str	r0, [r7, #12]
	str	r1, [r7, #8]
	str	r2, [r7, #4]
	str	r3, [r7]
	.loc 3 554 32
	ldr	r3, [r7, #12]
	ldr	r3, [r3, #8]
	str	r3, [r7, #20]
	.loc 3 556 12
	ldr	r3, [r7, #20]
	ldr	r4, [r3, #12]
	.loc 3 556 9
	ldr	r3, [r7]
	ldr	r2, [r7, #4]
	ldr	r1, [r7, #8]
	ldr	r0, [r7, #12]
	blx	r4
.LVL2:
	mov	r3, r0
	.loc 3 564 1
	mov	r0, r3
	adds	r7, r7, #28
	.cfi_def_cfa_offset 12
	mov	sp, r7
	.cfi_def_cfa_register 13
	@ sp needed
	pop	{r4, r7, pc}
	.cfi_endproc
.LFE57:
	.size	z_impl_uart_rx_enable, .-z_impl_uart_rx_enable
	.section	.text.uart_rx_buf_rsp,"ax",%progbits
	.align	1
	.syntax unified
	.thumb
	.thumb_func
	.type	uart_rx_buf_rsp, %function
uart_rx_buf_rsp:
.LFB59:
	.loc 3 583 1
	.cfi_startproc
	@ args = 0, pretend = 0, frame = 24
	@ frame_needed = 1, uses_anonymous_args = 0
	push	{r7, lr}
	.cfi_def_cfa_offset 8
	.cfi_offset 7, -8
	.cfi_offset 14, -4
	sub	sp, sp, #24
	.cfi_def_cfa_offset 32
	add	r7, sp, #0
	.cfi_def_cfa_register 7
	str	r0, [r7, #12]
	str	r1, [r7, #8]
	str	r2, [r7, #4]
	.loc 3 585 32
	ldr	r3, [r7, #12]
	ldr	r3, [r3, #8]
	str	r3, [r7, #20]
	.loc 3 587 12
	ldr	r3, [r7, #20]
	ldr	r3, [r3, #16]
	.loc 3 587 9
	ldr	r2, [r7, #4]
	ldr	r1, [r7, #8]
	ldr	r0, [r7, #12]
	blx	r3
.LVL3:
	mov	r3, r0
	.loc 3 594 1
	mov	r0, r3
	adds	r7, r7, #24
	.cfi_def_cfa_offset 8
	mov	sp, r7
	.cfi_def_cfa_register 13
	@ sp needed
	pop	{r7, pc}
	.cfi_endproc
.LFE59:
	.size	uart_rx_buf_rsp, .-uart_rx_buf_rsp
	.section	.text.z_impl_uart_rx_disable,"ax",%progbits
	.align	1
	.syntax unified
	.thumb
	.thumb_func
	.type	z_impl_uart_rx_disable, %function
z_impl_uart_rx_disable:
.LFB61:
	.loc 3 611 1
	.cfi_startproc
	@ args = 0, pretend = 0, frame = 16
	@ frame_needed = 1, uses_anonymous_args = 0
	push	{r7, lr}
	.cfi_def_cfa_offset 8
	.cfi_offset 7, -8
	.cfi_offset 14, -4
	sub	sp, sp, #16
	.cfi_def_cfa_offset 24
	add	r7, sp, #0
	.cfi_def_cfa_register 7
	str	r0, [r7, #4]
	.loc 3 613 32
	ldr	r3, [r7, #4]
	ldr	r3, [r3, #8]
	str	r3, [r7, #12]
	.loc 3 615 12
	ldr	r3, [r7, #12]
	ldr	r3, [r3, #20]
	.loc 3 615 9
	ldr	r0, [r7, #4]
	blx	r3
.LVL4:
	mov	r3, r0
	.loc 3 620 1
	mov	r0, r3
	adds	r7, r7, #16
	.cfi_def_cfa_offset 8
	mov	sp, r7
	.cfi_def_cfa_register 13
	@ sp needed
	pop	{r7, pc}
	.cfi_endproc
.LFE61:
	.size	z_impl_uart_rx_disable, .-z_impl_uart_rx_disable
	.section	.text.uart_configure,"ax",%progbits
	.align	1
	.syntax unified
	.thumb
	.thumb_func
	.type	uart_configure, %function
uart_configure:
.LFB70:
	.file 4 "/home/librgod/zephyr_workspace/motor/build/zephyr/include/generated/zephyr/syscalls/uart.h"
	.loc 4 148 1
	.cfi_startproc
	@ args = 0, pretend = 0, frame = 8
	@ frame_needed = 1, uses_anonymous_args = 0
	push	{r7, lr}
	.cfi_def_cfa_offset 8
	.cfi_offset 7, -8
	.cfi_offset 14, -4
	sub	sp, sp, #8
	.cfi_def_cfa_offset 16
	add	r7, sp, #0
	.cfi_def_cfa_register 7
	str	r0, [r7, #4]
	str	r1, [r7]
	.loc 4 156 7
	.loc 4 157 9
	ldr	r1, [r7]
	ldr	r0, [r7, #4]
	bl	z_impl_uart_configure
	mov	r3, r0
	.loc 4 158 1
	mov	r0, r3
	adds	r7, r7, #8
	.cfi_def_cfa_offset 8
	mov	sp, r7
	.cfi_def_cfa_register 13
	@ sp needed
	pop	{r7, pc}
	.cfi_endproc
.LFE70:
	.size	uart_configure, .-uart_configure
	.section	.text.uart_rx_enable,"ax",%progbits
	.align	1
	.syntax unified
	.thumb
	.thumb_func
	.type	uart_rx_enable, %function
uart_rx_enable:
.LFB83:
	.loc 4 461 1
	.cfi_startproc
	@ args = 0, pretend = 0, frame = 16
	@ frame_needed = 1, uses_anonymous_args = 0
	push	{r7, lr}
	.cfi_def_cfa_offset 8
	.cfi_offset 7, -8
	.cfi_offset 14, -4
	sub	sp, sp, #16
	.cfi_def_cfa_offset 24
	add	r7, sp, #0
	.cfi_def_cfa_register 7
	str	r0, [r7, #12]
	str	r1, [r7, #8]
	str	r2, [r7, #4]
	str	r3, [r7]
	.loc 4 471 7
	.loc 4 472 9
	ldr	r3, [r7]
	ldr	r2, [r7, #4]
	ldr	r1, [r7, #8]
	ldr	r0, [r7, #12]
	bl	z_impl_uart_rx_enable
	mov	r3, r0
	.loc 4 473 1
	mov	r0, r3
	adds	r7, r7, #16
	.cfi_def_cfa_offset 8
	mov	sp, r7
	.cfi_def_cfa_register 13
	@ sp needed
	pop	{r7, pc}
	.cfi_endproc
.LFE83:
	.size	uart_rx_enable, .-uart_rx_enable
	.section	.text.uart_rx_disable,"ax",%progbits
	.align	1
	.syntax unified
	.thumb
	.thumb_func
	.type	uart_rx_disable, %function
uart_rx_disable:
.LFB85:
	.loc 4 513 1
	.cfi_startproc
	@ args = 0, pretend = 0, frame = 8
	@ frame_needed = 1, uses_anonymous_args = 0
	push	{r7, lr}
	.cfi_def_cfa_offset 8
	.cfi_offset 7, -8
	.cfi_offset 14, -4
	sub	sp, sp, #8
	.cfi_def_cfa_offset 16
	add	r7, sp, #0
	.cfi_def_cfa_register 7
	str	r0, [r7, #4]
	.loc 4 520 7
	.loc 4 521 9
	ldr	r0, [r7, #4]
	bl	z_impl_uart_rx_disable
	mov	r3, r0
	.loc 4 522 1
	mov	r0, r3
	adds	r7, r7, #8
	.cfi_def_cfa_offset 8
	mov	sp, r7
	.cfi_def_cfa_register 13
	@ sp needed
	pop	{r7, pc}
	.cfi_endproc
.LFE85:
	.size	uart_rx_disable, .-uart_rx_disable
	.section	.text.arch_k_cycle_get_32,"ax",%progbits
	.align	1
	.syntax unified
	.thumb
	.thumb_func
	.type	arch_k_cycle_get_32, %function
arch_k_cycle_get_32:
.LFB193:
	.file 5 "/home/librgod/zephyr_workspace/zephyr/include/zephyr/arch/arm/misc.h"
	.loc 5 25 1
	.cfi_startproc
	@ args = 0, pretend = 0, frame = 0
	@ frame_needed = 1, uses_anonymous_args = 0
	push	{r7, lr}
	.cfi_def_cfa_offset 8
	.cfi_offset 7, -8
	.cfi_offset 14, -4
	add	r7, sp, #0
	.cfi_def_cfa_register 7
	.loc 5 26 9
	bl	sys_clock_cycle_get_32
	mov	r3, r0
	.loc 5 27 1
	mov	r0, r3
	pop	{r7, pc}
	.cfi_endproc
.LFE193:
	.size	arch_k_cycle_get_32, .-arch_k_cycle_get_32
	.section	.text.k_cycle_get_32,"ax",%progbits
	.align	1
	.syntax unified
	.thumb
	.thumb_func
	.type	k_cycle_get_32, %function
k_cycle_get_32:
.LFB517:
	.file 6 "/home/librgod/zephyr_workspace/zephyr/include/zephyr/kernel.h"
	.loc 6 1956 1
	.cfi_startproc
	@ args = 0, pretend = 0, frame = 0
	@ frame_needed = 1, uses_anonymous_args = 0
	push	{r7, lr}
	.cfi_def_cfa_offset 8
	.cfi_offset 7, -8
	.cfi_offset 14, -4
	add	r7, sp, #0
	.cfi_def_cfa_register 7
	.loc 6 1957 9
	bl	arch_k_cycle_get_32
	mov	r3, r0
	.loc 6 1958 1
	mov	r0, r3
	pop	{r7, pc}
	.cfi_endproc
.LFE517:
	.size	k_cycle_get_32, .-k_cycle_get_32
	.section	.text.z_log_msg_runtime_create,"ax",%progbits
	.align	1
	.syntax unified
	.thumb
	.thumb_func
	.type	z_log_msg_runtime_create, %function
z_log_msg_runtime_create:
.LFB640:
	.file 7 "/home/librgod/zephyr_workspace/zephyr/include/zephyr/logging/log_msg.h"
	.loc 7 707 1
	.cfi_startproc
	@ args = 12, pretend = 0, frame = 24
	@ frame_needed = 1, uses_anonymous_args = 1
	push	{r7, lr}
	.cfi_def_cfa_offset 8
	.cfi_offset 7, -8
	.cfi_offset 14, -4
	sub	sp, sp, #40
	.cfi_def_cfa_offset 48
	add	r7, sp, #16
	.cfi_def_cfa 7, 32
	str	r1, [r7, #8]
	str	r3, [r7, #4]
	mov	r3, r0
	strb	r3, [r7, #15]
	mov	r3, r2
	strb	r3, [r7, #14]
	.loc 7 710 1
	add	r3, r7, #44
	str	r3, [r7, #20]
	.loc 7 711 2
	ldrb	r2, [r7, #14]	@ zero_extendqisi2
	ldrb	r0, [r7, #15]	@ zero_extendqisi2
	ldr	r3, [r7, #20]
	str	r3, [sp, #12]
	ldr	r3, [r7, #40]
	str	r3, [sp, #8]
	ldr	r3, [r7, #36]
	str	r3, [sp, #4]
	ldr	r3, [r7, #32]
	str	r3, [sp]
	ldr	r3, [r7, #4]
	ldr	r1, [r7, #8]
	bl	z_log_msg_runtime_vcreate
	.loc 7 714 1
	nop
	adds	r7, r7, #24
	.cfi_def_cfa_offset 8
	mov	sp, r7
	.cfi_def_cfa_register 13
	@ sp needed
	pop	{r7, pc}
	.cfi_endproc
.LFE640:
	.size	z_log_msg_runtime_create, .-z_log_msg_runtime_create
	.section	.bss.__log_current_const_data,"aw",%nobits
	.align	2
	.type	__log_current_const_data, %object
	.size	__log_current_const_data, 4
__log_current_const_data:
	.space	4
	.section	.bss.__log_current_dynamic_data,"aw",%nobits
	.align	2
	.type	__log_current_dynamic_data, %object
	.size	__log_current_dynamic_data, 4
__log_current_dynamic_data:
	.space	4
	.section	.rodata.__log_level,"a"
	.align	2
	.type	__log_level, %object
	.size	__log_level, 4
__log_level:
	.word	60
	.section	.noinit."WEST_TOPDIR/motor/drivers/transfer/ares_sbus.c".k_mem_slab_buf_sbus_uart_slab,"aw"
	.align	2
	.type	_k_mem_slab_buf_sbus_uart_slab, %object
	.size	_k_mem_slab_buf_sbus_uart_slab, 256
_k_mem_slab_buf_sbus_uart_slab:
	.space	256
	.global	sbus_uart_slab
	.section	._k_mem_slab.static.sbus_uart_slab_,"aw"
	.align	2
	.type	sbus_uart_slab, %object
	.size	sbus_uart_slab, 28
sbus_uart_slab:
	.word	sbus_uart_slab
	.word	sbus_uart_slab
	.word	_k_mem_slab_buf_sbus_uart_slab
	.word	0
	.word	4
	.word	64
	.word	0
	.section	.data.uart_dev,"aw"
	.align	2
	.type	uart_dev, %object
	.size	uart_dev, 4
uart_dev:
	.word	__device_dts_ord_82
	.global	__aeabi_uldivmod
	.section	.text.sbus_parseframe_chan,"ax",%progbits
	.align	1
	.global	sbus_parseframe_chan
	.syntax unified
	.thumb
	.thumb_func
	.type	sbus_parseframe_chan, %function
sbus_parseframe_chan:
.LFB661:
	.loc 1 24 1
	.cfi_startproc
	@ args = 0, pretend = 0, frame = 16
	@ frame_needed = 1, uses_anonymous_args = 0
	push	{r4, r5, r7, r8, r9, lr}
	.cfi_def_cfa_offset 24
	.cfi_offset 4, -24
	.cfi_offset 5, -20
	.cfi_offset 7, -16
	.cfi_offset 8, -12
	.cfi_offset 9, -8
	.cfi_offset 14, -4
	sub	sp, sp, #16
	.cfi_def_cfa_offset 40
	add	r7, sp, #0
	.cfi_def_cfa_register 7
	str	r0, [r7, #4]
	str	r1, [r7]
	.loc 1 26 27
	ldr	r3, [r7, #4]
	ldr	r3, [r3, #16]
	str	r3, [r7, #12]
	.loc 1 28 20
	bl	k_cycle_get_32
	mov	r3, r0
	.loc 1 28 6
	str	r3, [r7, #8]
	.loc 1 29 204
	ldr	r3, [r7, #12]
	ldr	r3, [r3, #64]
	.loc 1 29 198
	ldr	r2, [r7, #8]
	subs	r3, r2, r3
	.loc 1 29 69
	cmp	r3, #0
	blt	.L27
	.loc 1 29 85 discriminator 1
	ldr	r3, [r7, #12]
	ldr	r3, [r3, #64]
	.loc 1 29 79 discriminator 1
	ldr	r2, [r7, #8]
	subs	r3, r2, r3
	.loc 1 29 97 discriminator 1
	add	r3, r3, #83968
	adds	r3, r3, #32
	.loc 1 29 69 discriminator 1
	ldr	r2, .L49
	cmp	r3, r2
	ite	hi
	movhi	r3, #1
	movls	r3, #0
	uxtb	r3, r3
	b	.L28
.L27:
	.loc 1 29 169 discriminator 2
	ldr	r3, [r7, #12]
	ldr	r3, [r3, #64]
	.loc 1 29 163 discriminator 2
	ldr	r2, [r7, #8]
	subs	r3, r2, r3
	.loc 1 29 139 discriminator 2
	asrs	r2, r3, #31
	mov	r4, r3
	mov	r5, r2
	.loc 1 29 181 discriminator 2
	ldr	r3, .L49+4
	adds	r8, r4, r3
	adc	r9, r5, #0
	.loc 1 29 52 discriminator 2
	ldr	r2, .L49+8
	mov	r3, #0
	mov	r0, r8
	mov	r1, r9
	bl	__aeabi_uldivmod
	mov	r2, r0
	mov	r3, r1
	.loc 1 29 126 discriminator 2
	mov	r3, r2
	.loc 1 29 69 discriminator 2
	cmp	r3, #100
	ite	hi
	movhi	r3, #1
	movls	r3, #0
	uxtb	r3, r3
.L28:
	.loc 1 29 5 discriminator 4
	cmp	r3, #0
	beq	.L29
	.loc 1 30 10
	mov	r3, #1024
	b	.L30
.L29:
	.loc 1 34 2
	ldr	r3, [r7]
	cmp	r3, #15
	bhi	.L31
	adr	r2, .L33
	ldr	pc, [r2, r3, lsl #2]
	.p2align 2
.L33:
	.word	.L48+1
	.word	.L47+1
	.word	.L46+1
	.word	.L45+1
	.word	.L44+1
	.word	.L43+1
	.word	.L42+1
	.word	.L41+1
	.word	.L40+1
	.word	.L39+1
	.word	.L38+1
	.word	.L37+1
	.word	.L36+1
	.word	.L35+1
	.word	.L34+1
	.word	.L32+1
	.p2align 1
.L48:
	.loc 1 36 21
	ldr	r3, [r7, #12]
	ldrb	r3, [r3, #1]	@ zero_extendqisi2
	.loc 1 36 25
	mov	r2, r3
	.loc 1 36 43
	ldr	r3, [r7, #12]
	ldrb	r3, [r3, #2]	@ zero_extendqisi2
	.loc 1 36 47
	lsls	r3, r3, #8
	.loc 1 36 30
	orrs	r3, r3, r2
	.loc 1 36 54
	ubfx	r3, r3, #0, #11
	b	.L30
.L47:
	.loc 1 38 21
	ldr	r3, [r7, #12]
	ldrb	r3, [r3, #2]	@ zero_extendqisi2
	.loc 1 38 25
	lsrs	r3, r3, #3
	uxtb	r3, r3
	mov	r2, r3
	.loc 1 38 43
	ldr	r3, [r7, #12]
	ldrb	r3, [r3, #3]	@ zero_extendqisi2
	.loc 1 38 47
	lsls	r3, r3, #5
	.loc 1 38 30
	orrs	r3, r3, r2
	.loc 1 38 54
	ubfx	r3, r3, #0, #11
	b	.L30
.L46:
	.loc 1 40 21
	ldr	r3, [r7, #12]
	ldrb	r3, [r3, #3]	@ zero_extendqisi2
	.loc 1 40 25
	lsrs	r3, r3, #6
	uxtb	r3, r3
	mov	r2, r3
	.loc 1 40 43
	ldr	r3, [r7, #12]
	ldrb	r3, [r3, #4]	@ zero_extendqisi2
	.loc 1 40 47
	lsls	r3, r3, #2
	.loc 1 40 30
	orrs	r2, r2, r3
	.loc 1 40 65
	ldr	r3, [r7, #12]
	ldrb	r3, [r3, #5]	@ zero_extendqisi2
	.loc 1 40 69
	lsls	r3, r3, #10
	.loc 1 40 53
	orrs	r3, r3, r2
	.loc 1 40 76
	ubfx	r3, r3, #0, #11
	b	.L30
.L45:
	.loc 1 42 21
	ldr	r3, [r7, #12]
	ldrb	r3, [r3, #5]	@ zero_extendqisi2
	.loc 1 42 25
	lsrs	r3, r3, #1
	uxtb	r3, r3
	mov	r2, r3
	.loc 1 42 43
	ldr	r3, [r7, #12]
	ldrb	r3, [r3, #6]	@ zero_extendqisi2
	.loc 1 42 47
	lsls	r3, r3, #7
	.loc 1 42 30
	orrs	r3, r3, r2
	.loc 1 42 54
	ubfx	r3, r3, #0, #11
	b	.L30
.L44:
	.loc 1 44 21
	ldr	r3, [r7, #12]
	ldrb	r3, [r3, #6]	@ zero_extendqisi2
	.loc 1 44 25
	lsrs	r3, r3, #4
	uxtb	r3, r3
	mov	r2, r3
	.loc 1 44 43
	ldr	r3, [r7, #12]
	ldrb	r3, [r3, #7]	@ zero_extendqisi2
	.loc 1 44 47
	lsls	r3, r3, #4
	.loc 1 44 30
	orrs	r3, r3, r2
	.loc 1 44 54
	ubfx	r3, r3, #0, #11
	b	.L30
.L43:
	.loc 1 46 21
	ldr	r3, [r7, #12]
	ldrb	r3, [r3, #7]	@ zero_extendqisi2
	.loc 1 46 25
	lsrs	r3, r3, #7
	uxtb	r3, r3
	mov	r2, r3
	.loc 1 46 43
	ldr	r3, [r7, #12]
	ldrb	r3, [r3, #8]	@ zero_extendqisi2
	.loc 1 46 47
	lsls	r3, r3, #1
	.loc 1 46 30
	orrs	r2, r2, r3
	.loc 1 46 65
	ldr	r3, [r7, #12]
	ldrb	r3, [r3, #9]	@ zero_extendqisi2
	.loc 1 46 69
	lsls	r3, r3, #9
	.loc 1 46 53
	orrs	r3, r3, r2
	.loc 1 46 75
	ubfx	r3, r3, #0, #11
	b	.L30
.L42:
	.loc 1 48 21
	ldr	r3, [r7, #12]
	ldrb	r3, [r3, #9]	@ zero_extendqisi2
	.loc 1 48 25
	lsrs	r3, r3, #2
	uxtb	r3, r3
	mov	r2, r3
	.loc 1 48 43
	ldr	r3, [r7, #12]
	ldrb	r3, [r3, #10]	@ zero_extendqisi2
	.loc 1 48 48
	lsls	r3, r3, #6
	.loc 1 48 30
	orrs	r3, r3, r2
	.loc 1 48 55
	ubfx	r3, r3, #0, #11
	b	.L30
.L41:
	.loc 1 50 21
	ldr	r3, [r7, #12]
	ldrb	r3, [r3, #10]	@ zero_extendqisi2
	.loc 1 50 26
	lsrs	r3, r3, #5
	uxtb	r3, r3
	mov	r2, r3
	.loc 1 50 44
	ldr	r3, [r7, #12]
	ldrb	r3, [r3, #11]	@ zero_extendqisi2
	.loc 1 50 49
	lsls	r3, r3, #3
	.loc 1 50 31
	orrs	r3, r3, r2
	.loc 1 50 56
	ubfx	r3, r3, #0, #11
	b	.L30
.L40:
	.loc 1 52 21
	ldr	r3, [r7, #12]
	ldrb	r3, [r3, #12]	@ zero_extendqisi2
	.loc 1 52 26
	mov	r2, r3
	.loc 1 52 44
	ldr	r3, [r7, #12]
	ldrb	r3, [r3, #13]	@ zero_extendqisi2
	.loc 1 52 49
	lsls	r3, r3, #8
	.loc 1 52 31
	orrs	r3, r3, r2
	.loc 1 52 56
	ubfx	r3, r3, #0, #11
	b	.L30
.L39:
	.loc 1 54 21
	ldr	r3, [r7, #12]
	ldrb	r3, [r3, #13]	@ zero_extendqisi2
	.loc 1 54 26
	lsrs	r3, r3, #3
	uxtb	r3, r3
	mov	r2, r3
	.loc 1 54 44
	ldr	r3, [r7, #12]
	ldrb	r3, [r3, #14]	@ zero_extendqisi2
	.loc 1 54 49
	lsls	r3, r3, #5
	.loc 1 54 31
	orrs	r3, r3, r2
	.loc 1 54 56
	ubfx	r3, r3, #0, #11
	b	.L30
.L38:
	.loc 1 56 21
	ldr	r3, [r7, #12]
	ldrb	r3, [r3, #14]	@ zero_extendqisi2
	.loc 1 56 26
	lsrs	r3, r3, #6
	uxtb	r3, r3
	mov	r2, r3
	.loc 1 56 44
	ldr	r3, [r7, #12]
	ldrb	r3, [r3, #16]	@ zero_extendqisi2
	.loc 1 56 49
	lsls	r3, r3, #2
	.loc 1 56 31
	orrs	r2, r2, r3
	.loc 1 56 67
	ldr	r3, [r7, #12]
	ldrb	r3, [r3, #15]	@ zero_extendqisi2
	.loc 1 56 72
	lsls	r3, r3, #10
	.loc 1 56 55
	orrs	r3, r3, r2
	.loc 1 56 79
	ubfx	r3, r3, #0, #11
	b	.L30
.L37:
	.loc 1 59 21
	ldr	r3, [r7, #12]
	ldrb	r3, [r3, #16]	@ zero_extendqisi2
	.loc 1 59 26
	lsrs	r3, r3, #1
	uxtb	r3, r3
	mov	r2, r3
	.loc 1 59 44
	ldr	r3, [r7, #12]
	ldrb	r3, [r3, #17]	@ zero_extendqisi2
	.loc 1 59 49
	lsls	r3, r3, #7
	.loc 1 59 31
	orrs	r3, r3, r2
	.loc 1 59 56
	ubfx	r3, r3, #0, #11
	b	.L30
.L36:
	.loc 1 61 21
	ldr	r3, [r7, #12]
	ldrb	r3, [r3, #17]	@ zero_extendqisi2
	.loc 1 61 26
	lsrs	r3, r3, #4
	uxtb	r3, r3
	mov	r2, r3
	.loc 1 61 44
	ldr	r3, [r7, #12]
	ldrb	r3, [r3, #18]	@ zero_extendqisi2
	.loc 1 61 49
	lsls	r3, r3, #4
	.loc 1 61 31
	orrs	r3, r3, r2
	.loc 1 61 56
	ubfx	r3, r3, #0, #11
	b	.L30
.L35:
	.loc 1 63 21
	ldr	r3, [r7, #12]
	ldrb	r3, [r3, #18]	@ zero_extendqisi2
	.loc 1 63 26
	lsrs	r3, r3, #7
	uxtb	r3, r3
	mov	r2, r3
	.loc 1 63 44
	ldr	r3, [r7, #12]
	ldrb	r3, [r3, #19]	@ zero_extendqisi2
	.loc 1 63 49
	lsls	r3, r3, #1
	.loc 1 63 31
	orrs	r2, r2, r3
	.loc 1 63 67
	ldr	r3, [r7, #12]
	ldrb	r3, [r3, #20]	@ zero_extendqisi2
	.loc 1 63 72
	lsls	r3, r3, #9
	.loc 1 63 55
	orrs	r3, r3, r2
	.loc 1 63 78
	ubfx	r3, r3, #0, #11
	b	.L30
.L34:
	.loc 1 65 21
	ldr	r3, [r7, #12]
	ldrb	r3, [r3, #20]	@ zero_extendqisi2
	.loc 1 65 26
	lsrs	r3, r3, #2
	uxtb	r3, r3
	mov	r2, r3
	.loc 1 65 44
	ldr	r3, [r7, #12]
	ldrb	r3, [r3, #21]	@ zero_extendqisi2
	.loc 1 65 49
	lsls	r3, r3, #6
	.loc 1 65 31
	orrs	r3, r3, r2
	.loc 1 65 56
	ubfx	r3, r3, #0, #11
	b	.L30
.L32:
	.loc 1 67 21
	ldr	r3, [r7, #12]
	ldrb	r3, [r3, #21]	@ zero_extendqisi2
	.loc 1 67 26
	lsrs	r3, r3, #5
	uxtb	r3, r3
	mov	r2, r3
	.loc 1 67 44
	ldr	r3, [r7, #12]
	ldrb	r3, [r3, #22]	@ zero_extendqisi2
	.loc 1 67 49
	lsls	r3, r3, #3
	.loc 1 67 31
	orrs	r3, r3, r2
	.loc 1 67 56
	ubfx	r3, r3, #0, #11
	b	.L30
.L31:
	.loc 1 69 10
	mov	r3, #1024
.L30:
	.loc 1 71 1
	mov	r0, r3
	adds	r7, r7, #16
	.cfi_def_cfa_offset 24
	mov	sp, r7
	.cfi_def_cfa_register 13
	@ sp needed
	pop	{r4, r5, r7, r8, r9, pc}
.L50:
	.align	2
.L49:
	.word	16967999
	.word	84000
	.word	168000
	.cfi_endproc
.LFE661:
	.size	sbus_parseframe_chan, .-sbus_parseframe_chan
	.section	.text.sbus_parseframe,"ax",%progbits
	.align	1
	.global	sbus_parseframe
	.syntax unified
	.thumb
	.thumb_func
	.type	sbus_parseframe, %function
sbus_parseframe:
.LFB662:
	.loc 1 74 1
	.cfi_startproc
	@ args = 0, pretend = 0, frame = 16
	@ frame_needed = 1, uses_anonymous_args = 0
	push	{r7, lr}
	.cfi_def_cfa_offset 8
	.cfi_offset 7, -8
	.cfi_offset 14, -4
	sub	sp, sp, #16
	.cfi_def_cfa_offset 24
	add	r7, sp, #0
	.cfi_def_cfa_register 7
	str	r0, [r7, #4]
	.loc 1 75 27
	ldr	r3, [r7, #4]
	ldr	r3, [r3, #16]
	str	r3, [r7, #8]
.LBB2:
	.loc 1 77 11
	movs	r3, #0
	str	r3, [r7, #12]
	.loc 1 77 2
	b	.L52
.L53:
	.loc 1 78 23 discriminator 3
	ldr	r1, [r7, #12]
	ldr	r0, [r7, #4]
	bl	sbus_parseframe_chan
	mov	r3, r0
	.loc 1 78 21 discriminator 3
	uxth	r1, r3
	ldr	r2, [r7, #8]
	ldr	r3, [r7, #12]
	adds	r3, r3, #12
	lsls	r3, r3, #1
	add	r3, r3, r2
	mov	r2, r1	@ movhi
	strh	r2, [r3, #2]	@ movhi
	.loc 1 77 27 discriminator 3
	ldr	r3, [r7, #12]
	adds	r3, r3, #1
	str	r3, [r7, #12]
.L52:
	.loc 1 77 20 discriminator 1
	ldr	r3, [r7, #12]
	cmp	r3, #15
	ble	.L53
.LBE2:
	.loc 1 81 31
	ldr	r3, [r7, #8]
	ldrb	r3, [r3, #23]	@ zero_extendqisi2
	.loc 1 81 44
	asrs	r3, r3, #2
	and	r3, r3, #1
	cmp	r3, #0
	ite	ne
	movne	r3, #1
	moveq	r3, #0
	uxtb	r2, r3
	.loc 1 81 18
	ldr	r3, [r7, #8]
	strb	r2, [r3, #58]
	.loc 1 82 30
	ldr	r3, [r7, #8]
	ldrb	r3, [r3, #23]	@ zero_extendqisi2
	.loc 1 82 43
	asrs	r3, r3, #3
	and	r3, r3, #1
	cmp	r3, #0
	ite	ne
	movne	r3, #1
	moveq	r3, #0
	uxtb	r2, r3
	.loc 1 82 17
	ldr	r3, [r7, #8]
	strb	r2, [r3, #59]
	.loc 1 83 40
	ldr	r3, [r7, #8]
	ldrb	r3, [r3, #23]	@ zero_extendqisi2
	.loc 1 83 45
	and	r3, r3, #1
	cmp	r3, #0
	ite	ne
	movne	r3, #1
	moveq	r3, #0
	uxtb	r2, r3
	.loc 1 83 27
	ldr	r3, [r7, #8]
	strb	r2, [r3, #60]
	.loc 1 84 40
	ldr	r3, [r7, #8]
	ldrb	r3, [r3, #23]	@ zero_extendqisi2
	.loc 1 84 53
	asrs	r3, r3, #1
	and	r3, r3, #1
	cmp	r3, #0
	ite	ne
	movne	r3, #1
	moveq	r3, #0
	uxtb	r2, r3
	.loc 1 84 27
	ldr	r3, [r7, #8]
	strb	r2, [r3, #61]
	.loc 1 85 1
	nop
	adds	r7, r7, #16
	.cfi_def_cfa_offset 8
	mov	sp, r7
	.cfi_def_cfa_register 13
	@ sp needed
	pop	{r7, pc}
	.cfi_endproc
.LFE662:
	.size	sbus_parseframe, .-sbus_parseframe
	.section	.text.find_begin,"ax",%progbits
	.align	1
	.syntax unified
	.thumb
	.thumb_func
	.type	find_begin, %function
find_begin:
.LFB663:
	.loc 1 88 1
	.cfi_startproc
	@ args = 0, pretend = 0, frame = 16
	@ frame_needed = 1, uses_anonymous_args = 0
	@ link register save eliminated.
	push	{r7}
	.cfi_def_cfa_offset 4
	.cfi_offset 7, -4
	sub	sp, sp, #20
	.cfi_def_cfa_offset 24
	add	r7, sp, #0
	.cfi_def_cfa_register 7
	str	r0, [r7, #4]
	mov	r3, r1
	strh	r3, [r7, #2]	@ movhi
	.loc 1 89 5
	ldrh	r3, [r7, #2]
	cmp	r3, #24
	bhi	.L55
	.loc 1 90 10
	mov	r3, #-1
	b	.L56
.L55:
.LBB3:
	.loc 1 92 19
	ldrh	r3, [r7, #2]
	.loc 1 92 11
	subs	r3, r3, #1
	str	r3, [r7, #12]
	.loc 1 92 2
	b	.L57
.L59:
	.loc 1 93 11
	ldr	r3, [r7, #12]
	subs	r3, r3, #24
	ldr	r2, [r7, #4]
	add	r3, r3, r2
	ldrb	r3, [r3]	@ zero_extendqisi2
	.loc 1 93 6
	cmp	r3, #15
	bne	.L58
	.loc 1 93 35 discriminator 1
	ldr	r3, [r7, #12]
	ldr	r2, [r7, #4]
	add	r3, r3, r2
	ldrb	r3, [r3]	@ zero_extendqisi2
	.loc 1 93 28 discriminator 1
	cmp	r3, #0
	bne	.L58
	.loc 1 94 13
	ldr	r3, [r7, #12]
	uxth	r3, r3
	subs	r3, r3, #24
	uxth	r3, r3
	sxth	r3, r3
	b	.L56
.L58:
	.loc 1 92 34 discriminator 2
	ldr	r3, [r7, #12]
	subs	r3, r3, #1
	str	r3, [r7, #12]
.L57:
	.loc 1 92 26 discriminator 1
	ldr	r3, [r7, #12]
	cmp	r3, #23
	bgt	.L59
.LBE3:
	.loc 1 97 9
	mov	r3, #-1
.L56:
	.loc 1 98 1
	mov	r0, r3
	adds	r7, r7, #20
	.cfi_def_cfa_offset 4
	mov	sp, r7
	.cfi_def_cfa_register 13
	@ sp needed
	ldr	r7, [sp], #4
	.cfi_restore 7
	.cfi_def_cfa_offset 0
	bx	lr
	.cfi_endproc
.LFE663:
	.size	find_begin, .-find_begin
	.section	.rodata
	.align	2
.LC1:
	.ascii	"Failed to enable RX: %d\000"
	.align	2
.LC2:
	.ascii	"Failed to allocate memory: %d\000"
	.section	.text.uart_callback,"ax",%progbits
	.align	1
	.syntax unified
	.thumb
	.thumb_func
	.type	uart_callback, %function
uart_callback:
.LFB664:
	.loc 1 102 1
	.cfi_startproc
	@ args = 0, pretend = 0, frame = 72
	@ frame_needed = 1, uses_anonymous_args = 0
	push	{r7, lr}
	.cfi_def_cfa_offset 8
	.cfi_offset 7, -8
	.cfi_offset 14, -4
	sub	sp, sp, #88
	.cfi_def_cfa_offset 96
	add	r7, sp, #16
	.cfi_def_cfa 7, 80
	str	r0, [r7, #12]
	str	r1, [r7, #8]
	str	r2, [r7, #4]
	.loc 1 105 17
	ldr	r3, [r7, #4]
	str	r3, [r7, #68]
	.loc 1 106 27
	ldr	r3, [r7, #68]
	ldr	r3, [r3, #16]
	str	r3, [r7, #64]
	.loc 1 107 13
	ldr	r3, [r7, #8]
	ldrb	r3, [r3]	@ zero_extendqisi2
	.loc 1 107 2
	subs	r3, r3, #2
	cmp	r3, #4
	bhi	.L81
	adr	r2, .L63
	ldr	pc, [r2, r3, lsl #2]
	.p2align 2
.L63:
	.word	.L67+1
	.word	.L66+1
	.word	.L65+1
	.word	.L81+1
	.word	.L62+1
	.p2align 1
.L67:
.LBB4:
	.loc 1 109 30
	ldr	r3, [r7, #8]
	ldr	r2, [r3, #4]
	.loc 1 109 47
	ldr	r3, [r7, #8]
	ldr	r3, [r3, #8]
	.loc 1 109 12
	add	r3, r3, r2
	str	r3, [r7, #36]
	.loc 1 110 30
	ldr	r3, [r7, #8]
	ldr	r3, [r3, #12]
	.loc 1 110 12
	strh	r3, [r7, #34]	@ movhi
	.loc 1 112 29
	ldrh	r3, [r7, #34]
	mov	r1, r3
	ldr	r0, [r7, #36]
	bl	find_begin
	mov	r3, r0
	mov	r2, r3
	.loc 1 112 12
	ldr	r3, [r7, #36]
	add	r3, r3, r2
	str	r3, [r7, #28]
	.loc 1 113 6
	ldr	r2, [r7, #28]
	ldr	r3, [r7, #36]
	cmp	r2, r3
	bcc	.L68
	.loc 1 113 37 discriminator 1
	ldr	r3, [r7, #28]
	add	r2, r3, #25
	.loc 1 113 46 discriminator 1
	ldrh	r3, [r7, #34]
	ldr	r1, [r7, #36]
	add	r3, r3, r1
	.loc 1 113 23 discriminator 1
	cmp	r2, r3
	bcs	.L68
	.loc 1 114 15
	ldr	r3, [r7, #64]
	.loc 1 114 4
	movs	r2, #25
	ldr	r1, [r7, #28]
	mov	r0, r3
	bl	memcpy
.L68:
	.loc 1 116 20
	bl	k_cycle_get_32
	mov	r3, r0
	mov	r2, r3
	.loc 1 116 18
	ldr	r3, [r7, #64]
	str	r2, [r3, #64]
	.loc 1 117 3
	b	.L69
.L66:
.LBE4:
.LBB5:
	.loc 1 121 12
	movs	r3, #0
	str	r3, [r7, #24]
	.loc 1 123 73
	mov	r2, #0
	mov	r3, #0
	.loc 1 123 9
	add	r1, r7, #24
	ldr	r0, .L89
	bl	k_mem_slab_alloc
	str	r0, [r7, #60]
	.loc 1 124 6
	ldr	r3, [r7, #60]
	cmp	r3, #0
	bne	.L82
	.loc 1 124 20 discriminator 1
	ldr	r3, [r7, #24]
	.loc 1 124 35 discriminator 1
	and	r3, r3, #3
	.loc 1 124 16 discriminator 1
	cmp	r3, #0
	bne	.L82
	.loc 1 124 54 discriminator 2
	ldr	r3, [r7, #24]
	.loc 1 124 47 discriminator 2
	cmp	r3, #0
	beq	.L82
	.loc 1 125 4
	ldr	r3, [r7, #24]
	movs	r2, #64
	mov	r1, r3
	ldr	r0, [r7, #12]
	bl	uart_rx_buf_rsp
.L82:
	.loc 1 127 3
	nop
.LBE5:
	.loc 1 160 1
	b	.L88
.L65:
.LBB6:
	.loc 1 131 9
	ldr	r3, [r7, #8]
	ldr	r3, [r3, #4]
	str	r3, [r7, #40]
	.loc 1 132 6
	ldr	r3, [r7, #40]
	cmp	r3, #0
	beq	.L83
	.loc 1 133 4
	ldr	r1, [r7, #40]
	ldr	r0, .L89
	bl	k_mem_slab_free
	.loc 1 135 3
	b	.L83
.L62:
.LBE6:
.LBB7:
	.loc 1 143 12
	movs	r3, #0
	str	r3, [r7, #20]
	.loc 1 144 73
	mov	r2, #0
	mov	r3, #0
	.loc 1 144 9
	add	r1, r7, #20
	ldr	r0, .L89
	bl	k_mem_slab_alloc
	str	r0, [r7, #60]
	.loc 1 145 6
	ldr	r3, [r7, #60]
	cmp	r3, #0
	bne	.L72
	.loc 1 145 23 discriminator 1
	ldr	r3, [r7, #20]
	.loc 1 145 16 discriminator 1
	cmp	r3, #0
	beq	.L72
	.loc 1 145 34 discriminator 2
	ldr	r3, [r7, #20]
	.loc 1 145 49 discriminator 2
	and	r3, r3, #3
	.loc 1 145 30 discriminator 2
	cmp	r3, #0
	bne	.L72
	.loc 1 146 4
	ldr	r3, [r7, #20]
	movs	r2, #64
	movs	r1, #0
	mov	r0, r3
	bl	memset
	.loc 1 147 10
	ldr	r1, [r7, #20]
	movs	r3, #100
	movs	r2, #64
	ldr	r0, [r7, #12]
	bl	uart_rx_enable
	str	r0, [r7, #60]
	.loc 1 148 7
	ldr	r3, [r7, #60]
	cmp	r3, #0
	beq	.L77
.LBB8:
	.loc 1 149 14
	movs	r3, #60
	.loc 1 149 13
	cmp	r3, #0
	beq	.L84
	.loc 1 149 25 discriminator 3
	movs	r3, #1
	strb	r3, [r7, #59]
	.loc 1 149 10 discriminator 3
	ldrb	r3, [r7, #59]
	eor	r3, r3, #1
	uxtb	r3, r3
	.loc 1 149 9 discriminator 3
	cmp	r3, #0
	bne	.L85
	.loc 1 149 40 discriminator 4
	ldr	r3, .L89+4
	ldr	r1, [r3]
	ldr	r3, [r7, #60]
	str	r3, [sp, #12]
	ldr	r3, .L89+8
	str	r3, [sp, #8]
	movs	r3, #0
	str	r3, [sp, #4]
	movs	r3, #0
	str	r3, [sp]
	movs	r3, #0
	movs	r2, #1
	movs	r0, #0
	bl	z_log_msg_runtime_create
	.loc 1 149 132 discriminator 4
	movs	r3, #0
	str	r3, [r7, #52]
	b	.L75
.L84:
	.loc 1 149 308
	nop
	b	.L75
.L85:
	.loc 1 149 26
	nop
.L75:
.LBE8:
	.loc 1 150 5
	add	r3, r7, #20
	mov	r1, r3
	ldr	r0, .L89
	bl	k_mem_slab_free
	.loc 1 148 7
	b	.L77
.L72:
.LBB9:
	.loc 1 153 13
	movs	r3, #60
	.loc 1 153 12
	cmp	r3, #0
	beq	.L86
	.loc 1 153 24 discriminator 3
	movs	r3, #1
	strb	r3, [r7, #51]
	.loc 1 153 9 discriminator 3
	ldrb	r3, [r7, #51]
	eor	r3, r3, #1
	uxtb	r3, r3
	.loc 1 153 8 discriminator 3
	cmp	r3, #0
	bne	.L87
	.loc 1 153 39 discriminator 4
	ldr	r3, .L89+4
	ldr	r1, [r3]
	ldr	r3, [r7, #60]
	str	r3, [sp, #12]
	ldr	r3, .L89+12
	str	r3, [sp, #8]
	movs	r3, #0
	str	r3, [sp, #4]
	movs	r3, #0
	str	r3, [sp]
	movs	r3, #0
	movs	r2, #1
	movs	r0, #0
	bl	z_log_msg_runtime_create
	.loc 1 153 137 discriminator 4
	movs	r3, #0
	str	r3, [r7, #44]
.LBE9:
	.loc 1 155 3 discriminator 4
	b	.L77
.L86:
.LBB10:
	.loc 1 153 307
	nop
	b	.L77
.L87:
	.loc 1 153 25
	nop
.L77:
.LBE10:
	.loc 1 155 3 discriminator 2
	nop
.LBE7:
	.loc 1 160 1 discriminator 2
	b	.L88
.L81:
	.loc 1 158 3
	nop
	b	.L88
.L83:
.LBB11:
	.loc 1 135 3
	nop
.L69:
.L88:
.LBE11:
	.loc 1 160 1
	nop
	adds	r7, r7, #72
	.cfi_def_cfa_offset 8
	mov	sp, r7
	.cfi_def_cfa_register 13
	@ sp needed
	pop	{r7, pc}
.L90:
	.align	2
.L89:
	.word	sbus_uart_slab
	.word	__log_current_const_data
	.word	.LC1
	.word	.LC2
	.cfi_endproc
.LFE664:
	.size	uart_callback, .-uart_callback
	.section	.rodata
	.align	2
.LC3:
	.ascii	"UART device not ready\000"
	.align	2
.LC4:
	.ascii	"Failed to set callback: %d\000"
	.align	2
.LC5:
	.ascii	"Failed to configure UART: %d\000"
	.align	2
.LC0:
	.word	100000
	.byte	2
	.byte	3
	.byte	3
	.byte	0
	.section	.text.sbus_init,"ax",%progbits
	.align	1
	.syntax unified
	.thumb
	.thumb_func
	.type	sbus_init, %function
sbus_init:
.LFB665:
	.loc 1 164 1
	.cfi_startproc
	@ args = 0, pretend = 0, frame = 72
	@ frame_needed = 1, uses_anonymous_args = 0
	push	{r4, r7, lr}
	.cfi_def_cfa_offset 12
	.cfi_offset 4, -12
	.cfi_offset 7, -8
	.cfi_offset 14, -4
	sub	sp, sp, #92
	.cfi_def_cfa_offset 104
	add	r7, sp, #16
	.cfi_def_cfa 7, 88
	str	r0, [r7, #4]
	.loc 1 168 7
	ldr	r3, .L126
	ldr	r3, [r3]
	mov	r0, r3
	bl	device_is_ready
	mov	r3, r0
	.loc 1 168 6
	eor	r3, r3, #1
	uxtb	r3, r3
	.loc 1 168 5
	cmp	r3, #0
	beq	.L92
.LBB12:
	.loc 1 169 12
	movs	r3, #60
	.loc 1 169 11
	cmp	r3, #0
	beq	.L116
	.loc 1 169 23 discriminator 3
	movs	r3, #1
	strb	r3, [r7, #27]
	.loc 1 169 8 discriminator 3
	ldrb	r3, [r7, #27]
	eor	r3, r3, #1
	uxtb	r3, r3
	.loc 1 169 7 discriminator 3
	cmp	r3, #0
	bne	.L117
	.loc 1 169 38 discriminator 4
	ldr	r3, .L126+4
	ldr	r1, [r3]
	ldr	r3, .L126+8
	str	r3, [sp, #8]
	movs	r3, #0
	str	r3, [sp, #4]
	movs	r3, #0
	str	r3, [sp]
	movs	r3, #0
	movs	r2, #1
	movs	r0, #0
	bl	z_log_msg_runtime_create
	.loc 1 169 123 discriminator 4
	movs	r3, #0
	str	r3, [r7, #20]
	b	.L94
.L116:
	.loc 1 169 306
	nop
	b	.L94
.L117:
	.loc 1 169 24
	nop
.L94:
.LBE12:
	.loc 1 170 10
	mvn	r3, #18
	b	.L96
.L92:
	.loc 1 174 27
	ldr	r3, [r7, #4]
	ldr	r3, [r3, #16]
	str	r3, [r7, #64]
.LBB13:
	.loc 1 175 11
	movs	r3, #0
	str	r3, [r7, #68]
	.loc 1 175 2
	b	.L97
.L98:
	.loc 1 176 21 discriminator 3
	ldr	r2, [r7, #64]
	ldr	r3, [r7, #68]
	adds	r3, r3, #12
	lsls	r3, r3, #1
	add	r3, r3, r2
	mov	r2, #1024
	strh	r2, [r3, #2]	@ movhi
	.loc 1 175 27 discriminator 3
	ldr	r3, [r7, #68]
	adds	r3, r3, #1
	str	r3, [r7, #68]
.L97:
	.loc 1 175 20 discriminator 1
	ldr	r3, [r7, #68]
	cmp	r3, #15
	ble	.L98
.LBE13:
	.loc 1 180 8
	ldr	r3, .L126
	ldr	r3, [r3]
	ldr	r2, [r7, #4]
	ldr	r1, .L126+12
	mov	r0, r3
	bl	uart_callback_set
	str	r0, [r7, #60]
	.loc 1 181 5
	ldr	r3, [r7, #60]
	cmp	r3, #0
	beq	.L99
.LBB14:
	.loc 1 182 12
	movs	r3, #60
	.loc 1 182 11
	cmp	r3, #0
	beq	.L118
	.loc 1 182 23 discriminator 3
	movs	r3, #1
	strb	r3, [r7, #35]
	.loc 1 182 8 discriminator 3
	ldrb	r3, [r7, #35]
	eor	r3, r3, #1
	uxtb	r3, r3
	.loc 1 182 7 discriminator 3
	cmp	r3, #0
	bne	.L119
	.loc 1 182 38 discriminator 4
	ldr	r3, .L126+4
	ldr	r1, [r3]
	ldr	r3, [r7, #60]
	str	r3, [sp, #12]
	ldr	r3, .L126+16
	str	r3, [sp, #8]
	movs	r3, #0
	str	r3, [sp, #4]
	movs	r3, #0
	str	r3, [sp]
	movs	r3, #0
	movs	r2, #1
	movs	r0, #0
	bl	z_log_msg_runtime_create
	.loc 1 182 133 discriminator 4
	movs	r3, #0
	str	r3, [r7, #28]
	b	.L101
.L118:
	.loc 1 182 306
	nop
	b	.L101
.L119:
	.loc 1 182 24
	nop
.L101:
.LBE14:
	.loc 1 183 10
	ldr	r3, [r7, #60]
	b	.L96
.L99:
	.loc 1 186 72
	mov	r0, #0
	mov	r1, #0
	.loc 1 186 8
	add	r4, r7, #16
	mov	r2, r0
	mov	r3, r1
	mov	r1, r4
	ldr	r0, .L126+20
	bl	k_mem_slab_alloc
	str	r0, [r7, #60]
	.loc 1 187 2
	ldr	r3, [r7, #16]
	movs	r2, #64
	movs	r1, #0
	mov	r0, r3
	bl	memset
	.loc 1 188 5
	ldr	r3, [r7, #60]
	cmp	r3, #0
	beq	.L103
.LBB15:
	.loc 1 189 12
	movs	r3, #60
	.loc 1 189 11
	cmp	r3, #0
	beq	.L120
	.loc 1 189 23 discriminator 3
	movs	r3, #1
	strb	r3, [r7, #43]
	.loc 1 189 8 discriminator 3
	ldrb	r3, [r7, #43]
	eor	r3, r3, #1
	uxtb	r3, r3
	.loc 1 189 7 discriminator 3
	cmp	r3, #0
	bne	.L121
	.loc 1 189 38 discriminator 4
	ldr	r3, .L126+4
	ldr	r1, [r3]
	ldr	r3, [r7, #60]
	str	r3, [sp, #12]
	ldr	r3, .L126+24
	str	r3, [sp, #8]
	movs	r3, #0
	str	r3, [sp, #4]
	movs	r3, #0
	str	r3, [sp]
	movs	r3, #0
	movs	r2, #1
	movs	r0, #0
	bl	z_log_msg_runtime_create
	.loc 1 189 136 discriminator 4
	movs	r3, #0
	str	r3, [r7, #36]
	b	.L105
.L120:
	.loc 1 189 306
	nop
	b	.L105
.L121:
	.loc 1 189 24
	nop
.L105:
.LBE15:
	.loc 1 190 10
	ldr	r3, [r7, #60]
	b	.L96
.L103:
	.loc 1 194 27
	ldr	r2, .L126+28
	add	r3, r7, #8
	ldm	r2, {r0, r1}
	stm	r3, {r0, r1}
	.loc 1 200 8
	ldr	r3, .L126
	ldr	r3, [r3]
	add	r2, r7, #8
	mov	r1, r2
	mov	r0, r3
	bl	uart_configure
	str	r0, [r7, #60]
	.loc 1 201 5
	ldr	r3, [r7, #60]
	cmp	r3, #0
	beq	.L107
.LBB16:
	.loc 1 202 12
	movs	r3, #60
	.loc 1 202 11
	cmp	r3, #0
	beq	.L122
	.loc 1 202 23 discriminator 3
	movs	r3, #1
	strb	r3, [r7, #51]
	.loc 1 202 8 discriminator 3
	ldrb	r3, [r7, #51]
	eor	r3, r3, #1
	uxtb	r3, r3
	.loc 1 202 7 discriminator 3
	cmp	r3, #0
	bne	.L123
	.loc 1 202 38 discriminator 4
	ldr	r3, .L126+4
	ldr	r1, [r3]
	ldr	r3, [r7, #60]
	str	r3, [sp, #12]
	ldr	r3, .L126+32
	str	r3, [sp, #8]
	movs	r3, #0
	str	r3, [sp, #4]
	movs	r3, #0
	str	r3, [sp]
	movs	r3, #0
	movs	r2, #1
	movs	r0, #0
	bl	z_log_msg_runtime_create
	.loc 1 202 135 discriminator 4
	movs	r3, #0
	str	r3, [r7, #44]
	b	.L109
.L122:
	.loc 1 202 306
	nop
	b	.L109
.L123:
	.loc 1 202 24
	nop
.L109:
.LBE16:
	.loc 1 203 3
	add	r3, r7, #16
	mov	r1, r3
	ldr	r0, .L126+20
	bl	k_mem_slab_free
	.loc 1 204 10
	ldr	r3, [r7, #60]
	b	.L96
.L107:
	.loc 1 209 2
	ldr	r3, .L126
	ldr	r3, [r3]
	mov	r0, r3
	bl	uart_rx_disable
	.loc 1 210 8
	ldr	r3, .L126
	ldr	r0, [r3]
	ldr	r1, [r7, #16]
	movs	r3, #100
	movs	r2, #64
	bl	uart_rx_enable
	str	r0, [r7, #60]
	.loc 1 211 5
	ldr	r3, [r7, #60]
	cmp	r3, #0
	beq	.L111
.LBB17:
	.loc 1 212 12
	movs	r3, #60
	.loc 1 212 11
	cmp	r3, #0
	beq	.L124
	.loc 1 212 23 discriminator 3
	movs	r3, #1
	strb	r3, [r7, #59]
	.loc 1 212 8 discriminator 3
	ldrb	r3, [r7, #59]
	eor	r3, r3, #1
	uxtb	r3, r3
	.loc 1 212 7 discriminator 3
	cmp	r3, #0
	bne	.L125
	.loc 1 212 38 discriminator 4
	ldr	r3, .L126+4
	ldr	r1, [r3]
	ldr	r3, [r7, #60]
	str	r3, [sp, #12]
	ldr	r3, .L126+36
	str	r3, [sp, #8]
	movs	r3, #0
	str	r3, [sp, #4]
	movs	r3, #0
	str	r3, [sp]
	movs	r3, #0
	movs	r2, #1
	movs	r0, #0
	bl	z_log_msg_runtime_create
	.loc 1 212 130 discriminator 4
	movs	r3, #0
	str	r3, [r7, #52]
	b	.L113
.L124:
	.loc 1 212 306
	nop
	b	.L113
.L125:
	.loc 1 212 24
	nop
.L113:
.LBE17:
	.loc 1 213 3
	add	r3, r7, #16
	mov	r1, r3
	ldr	r0, .L126+20
	bl	k_mem_slab_free
	.loc 1 214 10
	ldr	r3, [r7, #60]
	b	.L96
.L111:
	.loc 1 217 9
	movs	r3, #0
.L96:
	.loc 1 218 1
	mov	r0, r3
	adds	r7, r7, #76
	.cfi_def_cfa_offset 12
	mov	sp, r7
	.cfi_def_cfa_register 13
	@ sp needed
	pop	{r4, r7, pc}
.L127:
	.align	2
.L126:
	.word	uart_dev
	.word	__log_current_const_data
	.word	.LC3
	.word	uart_callback
	.word	.LC4
	.word	sbus_uart_slab
	.word	.LC2
	.word	.LC0
	.word	.LC5
	.word	.LC1
	.cfi_endproc
.LFE665:
	.size	sbus_init, .-sbus_init
	.section	.text.sbus_getchannel_percentage,"ax",%progbits
	.align	1
	.global	sbus_getchannel_percentage
	.syntax unified
	.thumb
	.thumb_func
	.type	sbus_getchannel_percentage, %function
sbus_getchannel_percentage:
.LFB666:
	.loc 1 222 1
	.cfi_startproc
	@ args = 0, pretend = 0, frame = 24
	@ frame_needed = 1, uses_anonymous_args = 0
	push	{r7, lr}
	.cfi_def_cfa_offset 8
	.cfi_offset 7, -8
	.cfi_offset 14, -4
	sub	sp, sp, #24
	.cfi_def_cfa_offset 32
	add	r7, sp, #0
	.cfi_def_cfa_register 7
	str	r0, [r7, #4]
	mov	r3, r1
	strb	r3, [r7, #3]
	.loc 1 223 13
	ldrb	r3, [r7, #3]	@ zero_extendqisi2
	mov	r1, r3
	ldr	r0, [r7, #4]
	bl	sbus_parseframe_chan
	str	r0, [r7, #20]
	.loc 1 224 8
	ldr	r3, .L130
	str	r3, [r7, #16]	@ float
	.loc 1 225 29
	ldr	r3, [r7, #20]
	uxth	r3, r3
	sub	r3, r3, #1024
	uxth	r3, r3
	.loc 1 225 14
	sxth	r3, r3
	.loc 1 225 37
	vmov	s15, r3	@ int
	vcvt.f32.s32	s15, s15
	.loc 1 225 8
	vldr.32	s14, [r7, #16]
	vmul.f32	s15, s14, s15
	vstr.32	s15, [r7, #12]
	.loc 1 226 9
	ldr	r3, [r7, #12]	@ float
	vmov	s15, r3
	.loc 1 227 1
	vmov.f32	s0, s15
	adds	r7, r7, #24
	.cfi_def_cfa_offset 8
	mov	sp, r7
	.cfi_def_cfa_register 13
	@ sp needed
	pop	{r7, pc}
.L131:
	.align	2
.L130:
	.word	985880219
	.cfi_endproc
.LFE666:
	.size	sbus_getchannel_percentage, .-sbus_getchannel_percentage
	.section	.text.sbus_getchannel_digital,"ax",%progbits
	.align	1
	.global	sbus_getchannel_digital
	.syntax unified
	.thumb
	.thumb_func
	.type	sbus_getchannel_digital, %function
sbus_getchannel_digital:
.LFB667:
	.loc 1 231 1
	.cfi_startproc
	@ args = 0, pretend = 0, frame = 16
	@ frame_needed = 1, uses_anonymous_args = 0
	push	{r7, lr}
	.cfi_def_cfa_offset 8
	.cfi_offset 7, -8
	.cfi_offset 14, -4
	sub	sp, sp, #16
	.cfi_def_cfa_offset 24
	add	r7, sp, #0
	.cfi_def_cfa_register 7
	str	r0, [r7, #4]
	mov	r3, r1
	strb	r3, [r7, #3]
	.loc 1 232 13
	ldrb	r3, [r7, #3]	@ zero_extendqisi2
	mov	r1, r3
	ldr	r0, [r7, #4]
	bl	sbus_parseframe_chan
	str	r0, [r7, #12]
	.loc 1 233 9
	ldr	r3, [r7, #12]
	.loc 1 234 1
	mov	r0, r3
	adds	r7, r7, #16
	.cfi_def_cfa_offset 8
	mov	sp, r7
	.cfi_def_cfa_register 13
	@ sp needed
	pop	{r7, pc}
	.cfi_endproc
.LFE667:
	.size	sbus_getchannel_digital, .-sbus_getchannel_digital
	.section	.data.sbus_api,"aw"
	.align	2
	.type	sbus_api, %object
	.size	sbus_api, 8
sbus_api:
	.word	sbus_getchannel_percentage
	.word	sbus_getchannel_digital
	.text
.Letext0:
	.file 8 "/home/librgod/zephyr-sdk-0.17.0/arm-zephyr-eabi/picolibc/include/machine/_default_types.h"
	.file 9 "/home/librgod/zephyr-sdk-0.17.0/arm-zephyr-eabi/picolibc/include/sys/_stdint.h"
	.file 10 "/home/librgod/zephyr-sdk-0.17.0/arm-zephyr-eabi/lib/gcc/arm-zephyr-eabi/12.2.0/include/stddef.h"
	.file 11 "/home/librgod/zephyr_workspace/zephyr/include/zephyr/device.h"
	.file 12 "/home/librgod/zephyr-sdk-0.17.0/arm-zephyr-eabi/lib/gcc/arm-zephyr-eabi/12.2.0/include/stdarg.h"
	.file 13 "/home/librgod/zephyr_workspace/zephyr/include/zephyr/drivers/uart.h"
	.file 14 "/home/librgod/zephyr_workspace/motor/include/zephyr/drivers/sbus.h"
	.file 15 "/home/librgod/zephyr_workspace/motor/drivers/transfer/ares_sbus.h"
	.file 16 "/home/librgod/zephyr_workspace/zephyr/include/zephyr/sys/dlist.h"
	.file 17 "/home/librgod/zephyr_workspace/zephyr/include/zephyr/kernel_structs.h"
	.file 18 "/home/librgod/zephyr_workspace/zephyr/include/zephyr/fatal_types.h"
	.file 19 "/home/librgod/zephyr_workspace/zephyr/include/zephyr/sys_clock.h"
	.file 20 "/home/librgod/zephyr_workspace/zephyr/include/zephyr/logging/log_instance.h"
	.file 21 "/home/librgod/zephyr-sdk-0.17.0/arm-zephyr-eabi/picolibc/include/string.h"
	.file 22 "<built-in>"
	.file 23 "/home/librgod/zephyr_workspace/zephyr/include/zephyr/spinlock.h"