	.cpu cortex-m4
	.arch armv7e-m
	.fpu fpv4-sp-d16
	.eabi_attribute 27, 1
	.eabi_attribute 28, 1
	.eabi_attribute 20, 1
	.eabi_attribute 21, 1
	.eabi_attribute 23, 3
	.eabi_attribute 24, 1
	.eabi_attribute 25, 1
	.eabi_attribute 26, 1
	.eabi_attribute 30, 6
	.eabi_attribute 34, 1
	.eabi_attribute 38, 1
	.eabi_attribute 18, 4
	.file	"init.c"
	.text
.Ltext0:
	.cfi_sections	.debug_frame
	.file 1 "/home/librgod/zephyr_workspace/motor/include/ares/board/init.c"
	.section	.text.device_is_ready,"ax",%progbits
	.align	1
	.syntax unified
	.thumb
	.thumb_func
	.type	device_is_ready, %function
device_is_ready:
.LFB25:
	.file 2 "/home/librgod/zephyr_workspace/motor/build/zephyr/include/generated/zephyr/syscalls/device.h"
	.loc 2 50 1
	.cfi_startproc
	@ args = 0, pretend = 0, frame = 8
	@ frame_needed = 1, uses_anonymous_args = 0
	push	{r7, lr}
	.cfi_def_cfa_offset 8
	.cfi_offset 7, -8
	.cfi_offset 14, -4
	sub	sp, sp, #8
	.cfi_def_cfa_offset 16
	add	r7, sp, #0
	.cfi_def_cfa_register 7
	str	r0, [r7, #4]
	.loc 2 57 7
	.loc 2 58 9
	ldr	r0, [r7, #4]
	bl	z_impl_device_is_ready
	mov	r3, r0
	.loc 2 59 1
	mov	r0, r3
	adds	r7, r7, #8
	.cfi_def_cfa_offset 8
	mov	sp, r7
	.cfi_def_cfa_register 13
	@ sp needed
	pop	{r7, pc}
	.cfi_endproc
.LFE25:
	.size	device_is_ready, .-device_is_ready
	.section	.text.z_impl_pwm_set_cycles,"ax",%progbits
	.align	1
	.syntax unified
	.thumb
	.thumb_func
	.type	z_impl_pwm_set_cycles, %function
z_impl_pwm_set_cycles:
.LFB65:
	.file 3 "/home/librgod/zephyr_workspace/zephyr/include/zephyr/drivers/pwm.h"
	.loc 3 486 1
	.cfi_startproc
	@ args = 4, pretend = 0, frame = 24
	@ frame_needed = 1, uses_anonymous_args = 0
	push	{r4, r7, lr}
	.cfi_def_cfa_offset 12
	.cfi_offset 4, -12
	.cfi_offset 7, -8
	.cfi_offset 14, -4
	sub	sp, sp, #36
	.cfi_def_cfa_offset 48
	add	r7, sp, #8
	.cfi_def_cfa 7, 40
	str	r0, [r7, #12]
	str	r1, [r7, #8]
	str	r2, [r7, #4]
	str	r3, [r7]
	.loc 3 487 31
	ldr	r3, [r7, #12]
	ldr	r3, [r3, #8]
	str	r3, [r7, #20]
	.loc 3 490 5
	ldr	r2, [r7]
	ldr	r3, [r7, #4]
	cmp	r2, r3
	bls	.L4
	.loc 3 491 10
	mvn	r3, #21
	b	.L5
.L4:
	.loc 3 494 12
	ldr	r3, [r7, #20]
	ldr	r4, [r3]
	.loc 3 494 9
	ldrh	r3, [r7, #40]
	str	r3, [sp]
	ldr	r3, [r7]
	ldr	r2, [r7, #4]
	ldr	r1, [r7, #8]
	ldr	r0, [r7, #12]
	blx	r4
.LVL0:
	mov	r3, r0
.L5:
	.loc 3 495 1
	mov	r0, r3
	adds	r7, r7, #28
	.cfi_def_cfa_offset 12
	mov	sp, r7
	.cfi_def_cfa_register 13
	@ sp needed
	pop	{r4, r7, pc}
	.cfi_endproc
.LFE65:
	.size	z_impl_pwm_set_cycles, .-z_impl_pwm_set_cycles
	.section	.text.z_impl_pwm_get_cycles_per_sec,"ax",%progbits
	.align	1
	.syntax unified
	.thumb
	.thumb_func
	.type	z_impl_pwm_get_cycles_per_sec, %function
z_impl_pwm_get_cycles_per_sec:
.LFB66:
	.loc 3 514 1
	.cfi_startproc
	@ args = 0, pretend = 0, frame = 24
	@ frame_needed = 1, uses_anonymous_args = 0
	push	{r7, lr}
	.cfi_def_cfa_offset 8
	.cfi_offset 7, -8
	.cfi_offset 14, -4
	sub	sp, sp, #24
	.cfi_def_cfa_offset 32
	add	r7, sp, #0
	.cfi_def_cfa_register 7
	str	r0, [r7, #12]
	str	r1, [r7, #8]
	str	r2, [r7, #4]
	.loc 3 515 31
	ldr	r3, [r7, #12]
	ldr	r3, [r3, #8]
	str	r3, [r7, #20]
	.loc 3 518 12
	ldr	r3, [r7, #20]
	ldr	r3, [r3, #4]
	.loc 3 518 9
	ldr	r2, [r7, #4]
	ldr	r1, [r7, #8]
	ldr	r0, [r7, #12]
	blx	r3
.LVL1:
	mov	r3, r0
	.loc 3 519 1
	mov	r0, r3
	adds	r7, r7, #24
	.cfi_def_cfa_offset 8
	mov	sp, r7
	.cfi_def_cfa_register 13
	@ sp needed
	pop	{r7, pc}
	.cfi_endproc
.LFE66:
	.size	z_impl_pwm_get_cycles_per_sec, .-z_impl_pwm_get_cycles_per_sec
	.global	__aeabi_uldivmod
	.section	.text.pwm_set,"ax",%progbits
	.align	1
	.syntax unified
	.thumb
	.thumb_func
	.type	pwm_set, %function
pwm_set:
.LFB67:
	.loc 3 539 1
	.cfi_startproc
	@ args = 4, pretend = 0, frame = 56
	@ frame_needed = 1, uses_anonymous_args = 0
	push	{r4, r5, r7, r8, r9, r10, fp, lr}
	.cfi_def_cfa_offset 32
	.cfi_offset 4, -32
	.cfi_offset 5, -28
	.cfi_offset 7, -24
	.cfi_offset 8, -20
	.cfi_offset 9, -16
	.cfi_offset 10, -12
	.cfi_offset 11, -8
	.cfi_offset 14, -4
	sub	sp, sp, #64
	.cfi_def_cfa_offset 96
	add	r7, sp, #8
	.cfi_def_cfa 7, 88
	str	r0, [r7, #20]
	str	r1, [r7, #16]
	str	r2, [r7, #12]
	str	r3, [r7, #8]
	.loc 3 545 8
	add	r3, r7, #24
	mov	r2, r3
	ldr	r1, [r7, #16]
	ldr	r0, [r7, #20]
	bl	pwm_get_cycles_per_sec
	str	r0, [r7, #52]
	.loc 3 546 5
	ldr	r3, [r7, #52]
	cmp	r3, #0
	bge	.L9
	.loc 3 547 10
	ldr	r3, [r7, #52]
	b	.L13
.L9:
	.loc 3 550 26
	ldr	r3, [r7, #12]
	movs	r2, #0
	str	r3, [r7]
	str	r2, [r7, #4]
	ldrd	r2, [r7, #24]
	ldr	r1, [r7, #4]
	mul	r0, r2, r1
	ldr	r1, [r7]
	mul	r1, r1, r3
	add	r1, r1, r0
	ldr	r0, [r7]
	umull	r8, r9, r0, r2
	add	r3, r1, r9
	mov	r9, r3
	.loc 3 550 16
	adr	r3, .L14
	ldrd	r2, [r3]
	mov	r0, r8
	mov	r1, r9
	bl	__aeabi_uldivmod
	mov	r2, r0
	mov	r3, r1
	strd	r2, [r7, #40]
	.loc 3 551 5
	ldrd	r2, [r7, #40]
	cmp	r3, #1
	bcc	.L11
	.loc 3 552 10
	mvn	r3, #133
	b	.L13
.L11:
	.loc 3 555 24
	ldr	r3, [r7, #8]
	movs	r2, #0
	mov	r10, r3
	mov	fp, r2
	ldrd	r2, [r7, #24]
	mul	r0, r2, fp
	mul	r1, r10, r3
	add	r1, r1, r0
	umull	r4, r5, r10, r2
	adds	r3, r1, r5
	mov	r5, r3
	.loc 3 555 15
	adr	r3, .L14
	ldrd	r2, [r3]
	mov	r0, r4
	mov	r1, r5
	bl	__aeabi_uldivmod
	mov	r2, r0
	mov	r3, r1
	strd	r2, [r7, #32]
	.loc 3 556 5
	ldrd	r2, [r7, #32]
	cmp	r3, #1
	bcc	.L12
	.loc 3 557 10
	mvn	r3, #133
	b	.L13
.L12:
	.loc 3 560 9
	ldr	r2, [r7, #40]
	ldr	r1, [r7, #32]
	ldrh	r3, [r7, #88]
	str	r3, [sp]
	mov	r3, r1
	ldr	r1, [r7, #16]
	ldr	r0, [r7, #20]
	bl	pwm_set_cycles
	mov	r3, r0
.L13:
	.loc 3 562 1 discriminator 1
	mov	r0, r3
	adds	r7, r7, #56
	.cfi_def_cfa_offset 32
	mov	sp, r7
	.cfi_def_cfa_register 13
	@ sp needed
	pop	{r4, r5, r7, r8, r9, r10, fp, pc}
.L15:
	.align	3
.L14:
	.word	1000000000
	.word	0
	.cfi_endproc
.LFE67:
	.size	pwm_set, .-pwm_set
	.section	.text.pwm_set_dt,"ax",%progbits
	.align	1
	.syntax unified
	.thumb
	.thumb_func
	.type	pwm_set_dt, %function
pwm_set_dt:
.LFB68:
	.loc 3 585 1
	.cfi_startproc
	@ args = 0, pretend = 0, frame = 16
	@ frame_needed = 1, uses_anonymous_args = 0
	push	{r7, lr}
	.cfi_def_cfa_offset 8
	.cfi_offset 7, -8
	.cfi_offset 14, -4
	sub	sp, sp, #24
	.cfi_def_cfa_offset 32
	add	r7, sp, #8
	.cfi_def_cfa 7, 24
	str	r0, [r7, #12]
	str	r1, [r7, #8]
	str	r2, [r7, #4]
	.loc 3 586 21
	ldr	r3, [r7, #12]
	ldr	r0, [r3]
	.loc 3 586 32
	ldr	r3, [r7, #12]
	ldr	r1, [r3, #4]
	.loc 3 586 62
	ldr	r3, [r7, #12]
	ldrh	r3, [r3, #12]
	.loc 3 586 9
	str	r3, [sp]
	ldr	r3, [r7, #4]
	ldr	r2, [r7, #8]
	bl	pwm_set
	mov	r3, r0
	.loc 3 587 1
	mov	r0, r3
	adds	r7, r7, #16
	.cfi_def_cfa_offset 8
	mov	sp, r7
	.cfi_def_cfa_register 13
	@ sp needed
	pop	{r7, pc}
	.cfi_endproc
.LFE68:
	.size	pwm_set_dt, .-pwm_set_dt
	.section	.text.pwm_set_cycles,"ax",%progbits
	.align	1
	.syntax unified
	.thumb
	.thumb_func
	.type	pwm_set_cycles, %function
pwm_set_cycles:
.LFB75:
	.file 4 "/home/librgod/zephyr_workspace/motor/build/zephyr/include/generated/zephyr/syscalls/pwm.h"
	.loc 4 27 1
	.cfi_startproc
	@ args = 4, pretend = 0, frame = 16
	@ frame_needed = 1, uses_anonymous_args = 0
	push	{r7, lr}
	.cfi_def_cfa_offset 8
	.cfi_offset 7, -8
	.cfi_offset 14, -4
	sub	sp, sp, #24
	.cfi_def_cfa_offset 32
	add	r7, sp, #8
	.cfi_def_cfa 7, 24
	str	r0, [r7, #12]
	str	r1, [r7, #8]
	str	r2, [r7, #4]
	str	r3, [r7]
	.loc 4 38 7
	.loc 4 39 9
	ldrh	r3, [r7, #24]
	str	r3, [sp]
	ldr	r3, [r7]
	ldr	r2, [r7, #4]
	ldr	r1, [r7, #8]
	ldr	r0, [r7, #12]
	bl	z_impl_pwm_set_cycles
	mov	r3, r0
	.loc 4 40 1
	mov	r0, r3
	adds	r7, r7, #16
	.cfi_def_cfa_offset 8
	mov	sp, r7
	.cfi_def_cfa_register 13
	@ sp needed
	pop	{r7, pc}
	.cfi_endproc
.LFE75:
	.size	pwm_set_cycles, .-pwm_set_cycles
	.section	.text.pwm_get_cycles_per_sec,"ax",%progbits
	.align	1
	.syntax unified
	.thumb
	.thumb_func
	.type	pwm_get_cycles_per_sec, %function
pwm_get_cycles_per_sec:
.LFB76:
	.loc 4 54 1
	.cfi_startproc
	@ args = 0, pretend = 0, frame = 16
	@ frame_needed = 1, uses_anonymous_args = 0
	push	{r7, lr}
	.cfi_def_cfa_offset 8
	.cfi_offset 7, -8
	.cfi_offset 14, -4
	sub	sp, sp, #16
	.cfi_def_cfa_offset 24
	add	r7, sp, #0
	.cfi_def_cfa_register 7
	str	r0, [r7, #12]
	str	r1, [r7, #8]
	str	r2, [r7, #4]
	.loc 4 63 7
	.loc 4 64 9
	ldr	r2, [r7, #4]
	ldr	r1, [r7, #8]
	ldr	r0, [r7, #12]
	bl	z_impl_pwm_get_cycles_per_sec
	mov	r3, r0
	.loc 4 65 1
	mov	r0, r3
	adds	r7, r7, #16
	.cfi_def_cfa_offset 8
	mov	sp, r7
	.cfi_def_cfa_register 13
	@ sp needed
	pop	{r7, pc}
	.cfi_endproc
.LFE76:
	.size	pwm_get_cycles_per_sec, .-pwm_get_cycles_per_sec
	.section	.text.k_msleep,"ax",%progbits
	.align	1
	.syntax unified
	.thumb
	.thumb_func
	.type	k_msleep, %function
k_msleep:
.LFB465:
	.file 5 "/home/librgod/zephyr_workspace/zephyr/include/zephyr/kernel.h"
	.loc 5 580 1
	.cfi_startproc
	@ args = 0, pretend = 0, frame = 8
	@ frame_needed = 1, uses_anonymous_args = 0
	push	{r4, r5, r7, r8, r9, r10, fp, lr}
	.cfi_def_cfa_offset 32
	.cfi_offset 4, -32
	.cfi_offset 5, -28
	.cfi_offset 7, -24
	.cfi_offset 8, -20
	.cfi_offset 9, -16
	.cfi_offset 10, -12
	.cfi_offset 11, -8
	.cfi_offset 14, -4
	sub	sp, sp, #8
	.cfi_def_cfa_offset 40
	add	r7, sp, #0
	.cfi_def_cfa_register 7
	str	r0, [r7, #4]
	.loc 5 581 141
	ldr	r1, [r7, #4]
	bic	r1, r1, r1, asr #31
	asrs	r0, r1, #31
	mov	r8, r1
	mov	r9, r0
	.loc 5 581 181
	mov	r0, r8
	mov	r1, r9
	mov	r4, #0
	mov	r5, #0
	lsls	r5, r1, #2
	orr	r5, r5, r0, lsr #30
	lsls	r4, r0, #2
	mov	r0, r4
	mov	r1, r5
	adds	r2, r0, r8
	adc	r3, r1, r9
	adds	r10, r2, r2
	adc	fp, r3, r3
	mov	r2, r10
	mov	r3, fp
	.loc 5 581 9
	mov	r0, r2
	mov	r1, r3
	bl	k_sleep
	mov	r1, r0
	mov	r3, r1
	.loc 5 582 1
	mov	r0, r3
	adds	r7, r7, #8
	.cfi_def_cfa_offset 32
	mov	sp, r7
	.cfi_def_cfa_register 13
	@ sp needed
	pop	{r4, r5, r7, r8, r9, r10, fp, pc}
	.cfi_endproc
.LFE465:
	.size	k_msleep, .-k_msleep
	.section	.text.k_thread_create,"ax",%progbits
	.align	1
	.syntax unified
	.thumb
	.thumb_func
	.type	k_thread_create, %function
k_thread_create:
.LFB504:
	.file 6 "/home/librgod/zephyr_workspace/motor/build/zephyr/include/generated/zephyr/syscalls/kernel.h"
	.loc 6 60 1
	.cfi_startproc
	@ args = 32, pretend = 0, frame = 16
	@ frame_needed = 1, uses_anonymous_args = 0
	push	{r7, lr}
	.cfi_def_cfa_offset 8
	.cfi_offset 7, -8
	.cfi_offset 14, -4
	sub	sp, sp, #48
	.cfi_def_cfa_offset 56
	add	r7, sp, #32
	.cfi_def_cfa 7, 24
	str	r0, [r7, #12]
	str	r1, [r7, #8]
	str	r2, [r7, #4]
	str	r3, [r7]
	.loc 6 84 7
	.loc 6 85 9
	ldrd	r2, [r7, #48]
	strd	r2, [sp, #24]
	ldr	r3, [r7, #40]
	str	r3, [sp, #16]
	ldr	r3, [r7, #36]
	str	r3, [sp, #12]
	ldr	r3, [r7, #32]
	str	r3, [sp, #8]
	ldr	r3, [r7, #28]
	str	r3, [sp, #4]
	ldr	r3, [r7, #24]
	str	r3, [sp]
	ldr	r3, [r7]
	ldr	r2, [r7, #4]
	ldr	r1, [r7, #8]
	ldr	r0, [r7, #12]
	bl	z_impl_k_thread_create
	mov	r3, r0
	.loc 6 86 1
	mov	r0, r3
	adds	r7, r7, #16
	.cfi_def_cfa_offset 8
	mov	sp, r7
	.cfi_def_cfa_register 13
	@ sp needed
	pop	{r7, pc}
	.cfi_endproc
.LFE504:
	.size	k_thread_create, .-k_thread_create
	.section	.text.k_sleep,"ax",%progbits
	.align	1
	.syntax unified
	.thumb
	.thumb_func
	.type	k_sleep, %function
k_sleep:
.LFB507:
	.loc 6 127 1
	.cfi_startproc
	@ args = 0, pretend = 0, frame = 8
	@ frame_needed = 1, uses_anonymous_args = 0
	push	{r7, lr}
	.cfi_def_cfa_offset 8
	.cfi_offset 7, -8
	.cfi_offset 14, -4
	sub	sp, sp, #8
	.cfi_def_cfa_offset 16
	add	r7, sp, #0
	.cfi_def_cfa_register 7
	strd	r0, [r7]
	.loc 6 134 7
	.loc 6 135 9
	ldrd	r0, [r7]
	bl	z_impl_k_sleep
	mov	r3, r0
	.loc 6 136 1
	mov	r0, r3
	adds	r7, r7, #8
	.cfi_def_cfa_offset 8
	mov	sp, r7
	.cfi_def_cfa_register 13
	@ sp needed
	pop	{r7, pc}
	.cfi_endproc
.LFE507:
	.size	k_sleep, .-k_sleep
	.section	.text.z_log_msg_runtime_create,"ax",%progbits
	.align	1
	.syntax unified
	.thumb
	.thumb_func
	.type	z_log_msg_runtime_create, %function
z_log_msg_runtime_create:
.LFB719:
	.file 7 "/home/librgod/zephyr_workspace/zephyr/include/zephyr/logging/log_msg.h"
	.loc 7 707 1
	.cfi_startproc
	@ args = 12, pretend = 0, frame = 24
	@ frame_needed = 1, uses_anonymous_args = 1
	push	{r7, lr}
	.cfi_def_cfa_offset 8
	.cfi_offset 7, -8
	.cfi_offset 14, -4
	sub	sp, sp, #40
	.cfi_def_cfa_offset 48
	add	r7, sp, #16
	.cfi_def_cfa 7, 32
	str	r1, [r7, #8]
	str	r3, [r7, #4]
	mov	r3, r0
	strb	r3, [r7, #15]
	mov	r3, r2
	strb	r3, [r7, #14]
	.loc 7 710 1
	add	r3, r7, #44
	str	r3, [r7, #20]
	.loc 7 711 2
	ldrb	r2, [r7, #14]	@ zero_extendqisi2
	ldrb	r0, [r7, #15]	@ zero_extendqisi2
	ldr	r3, [r7, #20]
	str	r3, [sp, #12]
	ldr	r3, [r7, #40]
	str	r3, [sp, #8]
	ldr	r3, [r7, #36]
	str	r3, [sp, #4]
	ldr	r3, [r7, #32]
	str	r3, [sp]
	ldr	r3, [r7, #4]
	ldr	r1, [r7, #8]
	bl	z_log_msg_runtime_vcreate
	.loc 7 714 1
	nop
	adds	r7, r7, #24
	.cfi_def_cfa_offset 8
	mov	sp, r7
	.cfi_def_cfa_register 13
	@ sp needed
	pop	{r7, pc}
	.cfi_endproc
.LFE719:
	.size	z_log_msg_runtime_create, .-z_log_msg_runtime_create
	.global	log_const_board_init
	.section	.rodata
	.align	2
.LC1:
	.ascii	"board_init\000"
	.section	._log_const.static.log_const_board_init_,"a"
	.align	2
	.type	log_const_board_init, %object
	.size	log_const_board_init, 8
log_const_board_init:
	.word	.LC1
	.byte	3
	.space	3
	.section	.data.__log_current_const_data,"aw"
	.align	2
	.type	__log_current_const_data, %object
	.size	__log_current_const_data, 4
__log_current_const_data:
	.word	log_const_board_init
	.section	.bss.__log_current_dynamic_data,"aw",%nobits
	.align	2
	.type	__log_current_dynamic_data, %object
	.size	__log_current_dynamic_data, 4
__log_current_dynamic_data:
	.space	4
	.section	.rodata.__log_level,"a"
	.align	2
	.type	__log_level, %object
	.size	__log_level, 4
__log_level:
	.word	3
	.section	.rodata.pwm_led_r,"a"
	.align	2
	.type	pwm_led_r, %object
	.size	pwm_led_r, 16
pwm_led_r:
	.word	__device_dts_ord_60
	.word	3
	.word	20000000
	.short	0
	.space	2
	.section	.rodata.pwm_led_g,"a"
	.align	2
	.type	pwm_led_g, %object
	.size	pwm_led_g, 16
pwm_led_g:
	.word	__device_dts_ord_60
	.word	2
	.word	20000000
	.short	0
	.space	2
	.section	.rodata.pwm_led_b,"a"
	.align	2
	.type	pwm_led_b, %object
	.size	pwm_led_b, 16
pwm_led_b:
	.word	__device_dts_ord_60
	.word	1
	.word	20000000
	.short	0
	.space	2
	.section	.rodata
	.align	2
.LC2:
	.ascii	"Failed to set red LED PWM (%d)\000"
	.align	2
.LC3:
	.ascii	"Failed to set green LED PWM (%d)\000"
	.align	2
.LC4:
	.ascii	"Failed to set blue LED PWM (%d)\000"
	.section	.text.set_rgb_led_brightness,"ax",%progbits
	.align	1
	.global	set_rgb_led_brightness
	.syntax unified
	.thumb
	.thumb_func
	.type	set_rgb_led_brightness, %function
set_rgb_led_brightness:
.LFB760:
	.loc 1 110 1
	.cfi_startproc
	@ args = 0, pretend = 0, frame = 48
	@ frame_needed = 1, uses_anonymous_args = 0
	push	{r7, lr}
	.cfi_def_cfa_offset 8
	.cfi_offset 7, -8
	.cfi_offset 14, -4
	sub	sp, sp, #64
	.cfi_def_cfa_offset 72
	add	r7, sp, #16
	.cfi_def_cfa 7, 56
	str	r0, [r7, #4]
	.loc 1 117 36
	ldr	r3, [r7, #4]
	ldrb	r3, [r3]	@ zero_extendqisi2
	.loc 1 117 24
	vmov	s15, r3	@ int
	vcvt.f32.u32	s15, s15
	.loc 1 117 40
	vldr.32	s13, .L49
	vdiv.f32	s14, s15, s13
	.loc 1 117 62
	vldr.32	s15, .L49+4	@ int
	.loc 1 117 50
	vcvt.f32.u32	s15, s15
	vmul.f32	s15, s14, s15
	.loc 1 117 10
	vcvt.u32.f32	s15, s15
	vmov	r3, s15	@ int
	str	r3, [r7, #44]
	.loc 1 118 36
	ldr	r3, [r7, #4]
	ldrb	r3, [r3, #1]	@ zero_extendqisi2
	.loc 1 118 24
	vmov	s15, r3	@ int
	vcvt.f32.u32	s15, s15
	.loc 1 118 40
	vldr.32	s13, .L49
	vdiv.f32	s14, s15, s13
	.loc 1 118 62
	vldr.32	s15, .L49+4	@ int
	.loc 1 118 50
	vcvt.f32.u32	s15, s15
	vmul.f32	s15, s14, s15
	.loc 1 118 10
	vcvt.u32.f32	s15, s15
	vmov	r3, s15	@ int
	str	r3, [r7, #40]
	.loc 1 119 36
	ldr	r3, [r7, #4]
	ldrb	r3, [r3, #2]	@ zero_extendqisi2
	.loc 1 119 24
	vmov	s15, r3	@ int
	vcvt.f32.u32	s15, s15
	.loc 1 119 40
	vldr.32	s13, .L49
	vdiv.f32	s14, s15, s13
	.loc 1 119 62
	vldr.32	s15, .L49+4	@ int
	.loc 1 119 50
	vcvt.f32.u32	s15, s15
	vmul.f32	s15, s14, s15
	.loc 1 119 10
	vcvt.u32.f32	s15, s15
	vmov	r3, s15	@ int
	str	r3, [r7, #36]
	.loc 1 122 40
	ldr	r3, .L49+4
	.loc 1 122 8
	ldr	r2, [r7, #44]
	mov	r1, r3
	ldr	r0, .L49+8
	bl	pwm_set_dt
	str	r0, [r7, #32]
	.loc 1 123 5
	ldr	r3, [r7, #32]
	cmp	r3, #0
	bge	.L30
.LBB2:
	.loc 1 124 12
	movs	r3, #3
	.loc 1 124 11
	cmp	r3, #0
	beq	.L43
	.loc 1 124 23 discriminator 3
	movs	r3, #1
	strb	r3, [r7, #15]
	.loc 1 124 8 discriminator 3
	ldrb	r3, [r7, #15]
	eor	r3, r3, #1
	uxtb	r3, r3
	.loc 1 124 7 discriminator 3
	cmp	r3, #0
	bne	.L44
	.loc 1 124 38 discriminator 4
	ldr	r3, .L49+12
	ldr	r1, [r3]
	ldr	r3, [r7, #32]
	str	r3, [sp, #12]
	ldr	r3, .L49+16
	str	r3, [sp, #8]
	movs	r3, #0
	str	r3, [sp, #4]
	movs	r3, #0
	str	r3, [sp]
	movs	r3, #0
	movs	r2, #1
	movs	r0, #0
	bl	z_log_msg_runtime_create
	.loc 1 124 137 discriminator 4
	movs	r3, #0
	str	r3, [r7, #8]
	b	.L32
.L43:
	.loc 1 124 306
	nop
	b	.L32
.L44:
	.loc 1 124 24
	nop
.L32:
.LBE2:
	.loc 1 125 10
	ldr	r3, [r7, #32]
	b	.L34
.L30:
	.loc 1 129 40
	ldr	r3, .L49+4
	.loc 1 129 8
	ldr	r2, [r7, #40]
	mov	r1, r3
	ldr	r0, .L49+20
	bl	pwm_set_dt
	str	r0, [r7, #32]
	.loc 1 130 5
	ldr	r3, [r7, #32]
	cmp	r3, #0
	bge	.L35
.LBB3:
	.loc 1 131 12
	movs	r3, #3
	.loc 1 131 11
	cmp	r3, #0
	beq	.L45
	.loc 1 131 23 discriminator 3
	movs	r3, #1
	strb	r3, [r7, #23]
	.loc 1 131 8 discriminator 3
	ldrb	r3, [r7, #23]
	eor	r3, r3, #1
	uxtb	r3, r3
	.loc 1 131 7 discriminator 3
	cmp	r3, #0
	bne	.L46
	.loc 1 131 38 discriminator 4
	ldr	r3, .L49+12
	ldr	r1, [r3]
	ldr	r3, [r7, #32]
	str	r3, [sp, #12]
	ldr	r3, .L49+24
	str	r3, [sp, #8]
	movs	r3, #0
	str	r3, [sp, #4]
	movs	r3, #0
	str	r3, [sp]
	movs	r3, #0
	movs	r2, #1
	movs	r0, #0
	bl	z_log_msg_runtime_create
	.loc 1 131 139 discriminator 4
	movs	r3, #0
	str	r3, [r7, #16]
	b	.L37
.L45:
	.loc 1 131 306
	nop
	b	.L37
.L46:
	.loc 1 131 24
	nop
.L37:
.LBE3:
	.loc 1 132 10
	ldr	r3, [r7, #32]
	b	.L34
.L35:
	.loc 1 136 40
	ldr	r3, .L49+4
	.loc 1 136 8
	ldr	r2, [r7, #36]
	mov	r1, r3
	ldr	r0, .L49+28
	bl	pwm_set_dt
	str	r0, [r7, #32]
	.loc 1 137 5
	ldr	r3, [r7, #32]
	cmp	r3, #0
	bge	.L39
.LBB4:
	.loc 1 138 12
	movs	r3, #3
	.loc 1 138 11
	cmp	r3, #0
	beq	.L47
	.loc 1 138 23 discriminator 3
	movs	r3, #1
	strb	r3, [r7, #31]
	.loc 1 138 8 discriminator 3
	ldrb	r3, [r7, #31]
	eor	r3, r3, #1
	uxtb	r3, r3
	.loc 1 138 7 discriminator 3
	cmp	r3, #0
	bne	.L48
	.loc 1 138 38 discriminator 4
	ldr	r3, .L49+12
	ldr	r1, [r3]
	ldr	r3, [r7, #32]
	str	r3, [sp, #12]
	ldr	r3, .L49+32
	str	r3, [sp, #8]
	movs	r3, #0
	str	r3, [sp, #4]
	movs	r3, #0
	str	r3, [sp]
	movs	r3, #0
	movs	r2, #1
	movs	r0, #0
	bl	z_log_msg_runtime_create
	.loc 1 138 138 discriminator 4
	movs	r3, #0
	str	r3, [r7, #24]
	b	.L41
.L47:
	.loc 1 138 306
	nop
	b	.L41
.L48:
	.loc 1 138 24
	nop
.L41:
.LBE4:
	.loc 1 139 10
	ldr	r3, [r7, #32]
	b	.L34
.L39:
	.loc 1 145 9
	movs	r3, #0
.L34:
	.loc 1 146 1
	mov	r0, r3
	adds	r7, r7, #48
	.cfi_def_cfa_offset 8
	mov	sp, r7
	.cfi_def_cfa_register 13
	@ sp needed
	pop	{r7, pc}
.L50:
	.align	2
.L49:
	.word	1132396544
	.word	20000000
	.word	pwm_led_r
	.word	__log_current_const_data
	.word	.LC2
	.word	pwm_led_g
	.word	.LC3
	.word	pwm_led_b
	.word	.LC4
	.cfi_endproc
.LFE760:
	.size	set_rgb_led_brightness, .-set_rgb_led_brightness
	.section	.text.led_set_rgb,"ax",%progbits
	.align	1
	.global	led_set_rgb
	.syntax unified
	.thumb
	.thumb_func
	.type	led_set_rgb, %function
led_set_rgb:
.LFB761:
	.loc 1 155 1
	.cfi_startproc
	@ args = 0, pretend = 0, frame = 8
	@ frame_needed = 1, uses_anonymous_args = 0
	@ link register save eliminated.
	push	{r7}
	.cfi_def_cfa_offset 4
	.cfi_offset 7, -4
	sub	sp, sp, #12
	.cfi_def_cfa_offset 16
	add	r7, sp, #0
	.cfi_def_cfa_register 7
	str	r0, [r7, #4]
	.loc 1 169 1
	nop
	adds	r7, r7, #12
	.cfi_def_cfa_offset 4
	mov	sp, r7
	.cfi_def_cfa_register 13
	@ sp needed
	ldr	r7, [sp], #4
	.cfi_restore 7
	.cfi_def_cfa_offset 0
	bx	lr
	.cfi_endproc
.LFE761:
	.size	led_set_rgb, .-led_set_rgb
	.global	__aeabi_ul2f
	.global	__aeabi_f2d
	.section	.rodata
	.align	2
.LC5:
	.ascii	"%s: CPU: %.1f%%, RGB: %02x%02x%02x\000"
	.section	.text.led_serivce_func,"ax",%progbits
	.align	1
	.global	led_serivce_func
	.syntax unified
	.thumb
	.thumb_func
	.type	led_serivce_func, %function
led_serivce_func:
.LFB762:
	.loc 1 172 1
	.cfi_startproc
	@ args = 0, pretend = 0, frame = 112
	@ frame_needed = 1, uses_anonymous_args = 0
	push	{r4, r5, r6, r7, r8, r9, fp, lr}
	.cfi_def_cfa_offset 32
	.cfi_offset 4, -32
	.cfi_offset 5, -28
	.cfi_offset 6, -24
	.cfi_offset 7, -20
	.cfi_offset 8, -16
	.cfi_offset 9, -12
	.cfi_offset 11, -8
	.cfi_offset 14, -4
	vpush.64	{d8}
	.cfi_def_cfa_offset 40
	.cfi_offset 80, -40
	.cfi_offset 81, -36
	sub	sp, sp, #152
	.cfi_def_cfa_offset 192
	add	r7, sp, #40
	.cfi_def_cfa 7, 152
	str	r0, [r7, #12]
	str	r1, [r7, #8]
	str	r2, [r7, #4]
	.loc 1 185 11
	movs	r3, #0
	str	r3, [r7, #108]
.L56:
.LBB5:
	.loc 1 189 3
	add	r3, r7, #48
	mov	r0, r3
	bl	k_thread_runtime_stats_all_get
	.loc 1 190 3
	movs	r0, #100
	bl	k_msleep
	.loc 1 191 3
	add	r3, r7, #24
	mov	r0, r3
	bl	k_thread_runtime_stats_all_get
	.loc 1 194 36
	ldrd	r0, [r7, #40]
	.loc 1 194 65
	ldrd	r2, [r7, #64]
	.loc 1 194 20
	subs	r4, r0, r2
	sbc	r5, r1, r3
	strd	r4, [r7, #96]
	.loc 1 196 18
	ldrd	r0, [r7, #24]
	.loc 1 196 52
	ldrd	r2, [r7, #48]
	.loc 1 195 21
	subs	r8, r0, r2
	sbc	r9, r1, r3
	strd	r8, [r7, #88]
	.loc 1 197 39
	ldrd	r0, [r7, #96]
	bl	__aeabi_ul2f
	vmov	s16, r0
	.loc 1 197 63
	ldrd	r0, [r7, #88]
	bl	__aeabi_ul2f
	vmov	s14, r0
	vdiv.f32	s15, s16, s14
	.loc 1 197 36
	vmov.f32	s14, #1.0e+0
	vsub.f32	s15, s14, s15
	.loc 1 197 9
	vldr.32	s14, .L59
	vmul.f32	s15, s15, s14
	vstr.32	s15, [r7, #84]
	.loc 1 200 38
	vldr.32	s14, [r7, #84]
	vldr.32	s13, .L59
	vdiv.f32	s15, s14, s13
	.loc 1 200 48
	vldr.32	s14, .L59+4
	vmul.f32	s15, s15, s14
	.loc 1 200 11
	vcvt.u32.f32	s15, s15
	vstr.32	s15, [r7]	@ int
	ldrb	r3, [r7]
	strb	r3, [r7, #83]
	.loc 1 201 47
	vldr.32	s14, [r7, #84]
	vldr.32	s13, .L59
	vdiv.f32	s15, s14, s13
	.loc 1 201 35
	vmov.f32	s14, #1.0e+0
	vsub.f32	s15, s14, s15
	.loc 1 201 57
	vldr.32	s14, .L59+4
	vmul.f32	s15, s15, s14
	.loc 1 201 11
	vcvt.u32.f32	s15, s15
	vstr.32	s15, [r7]	@ int
	ldrb	r3, [r7]
	strb	r3, [r7, #82]
	.loc 1 215 9
	ldrb	r3, [r7, #83]
	strb	r3, [r7, #20]
	ldrb	r3, [r7, #82]
	strb	r3, [r7, #21]
	movs	r3, #0
	strb	r3, [r7, #22]
	.loc 1 216 3
	add	r3, r7, #20
	mov	r0, r3
	bl	set_rgb_led_brightness
	.loc 1 218 11
	ldr	r1, [r7, #108]
	ldr	r3, .L59+8
	umull	r2, r3, r3, r1
	lsrs	r2, r3, #3
	mov	r3, r2
	lsls	r3, r3, #2
	add	r3, r3, r2
	lsls	r3, r3, #1
	subs	r2, r1, r3
	.loc 1 218 6
	cmp	r2, #0
	bne	.L53
.LBB6:
	.loc 1 219 13
	movs	r3, #3
	.loc 1 219 12
	cmp	r3, #3
	bls	.L57
	.loc 1 219 24 discriminator 3
	movs	r3, #1
	strb	r3, [r7, #81]
	.loc 1 219 9 discriminator 3
	ldrb	r3, [r7, #81]
	eor	r3, r3, #1
	uxtb	r3, r3
	.loc 1 219 8 discriminator 3
	cmp	r3, #0
	bne	.L58
	.loc 1 219 39 discriminator 4
	ldr	r3, .L59+12
	ldr	r6, [r3]
	ldr	r0, [r7, #84]	@ float
	bl	__aeabi_f2d
	mov	fp, r0
	mov	ip, r1
	ldrb	r1, [r7, #83]	@ zero_extendqisi2
	ldrb	r0, [r7, #82]	@ zero_extendqisi2
	movs	r3, #0
	str	r3, [sp, #32]
	str	r0, [sp, #28]
	str	r1, [sp, #24]
	strd	fp, [sp, #16]
	ldr	r3, .L59+16
	str	r3, [sp, #12]
	ldr	r3, .L59+20
	str	r3, [sp, #8]
	movs	r3, #8
	str	r3, [sp, #4]
	movs	r3, #0
	str	r3, [sp]
	movs	r3, #0
	movs	r2, #4
	mov	r1, r6
	movs	r0, #0
	bl	z_log_msg_runtime_create
	.loc 1 219 199 discriminator 4
	movs	r3, #0
	str	r3, [r7, #76]
	b	.L53
.L57:
	.loc 1 219 307
	nop
	b	.L53
.L58:
	.loc 1 219 25
	nop
.L53:
.LBE6:
	.loc 1 221 6 discriminator 1
	ldr	r3, [r7, #108]
	adds	r3, r3, #1
	str	r3, [r7, #108]
.LBE5:
	.loc 1 187 12 discriminator 1
	b	.L56
.L60:
	.align	2
.L59:
	.word	1120403456
	.word	1132396544
	.word	-858993459
	.word	__log_current_const_data
	.word	__func__.0
	.word	.LC5
	.cfi_endproc
.LFE762:
	.size	led_serivce_func, .-led_serivce_func
	.section	.noinit."WEST_TOPDIR/motor/include/ares/board/init.c".0,"aw"
	.align	3
	.type	led_serivce_stack, %object
	.size	led_serivce_stack, 1024
led_serivce_stack:
	.space	1024
	.section	.bss.led_service_thread,"aw",%nobits
	.align	3
	.type	led_service_thread, %object
	.size	led_service_thread, 280
led_service_thread:
	.space	280
	.section	.rodata
	.align	2
.LC6:
	.ascii	"One or more PWM LED devices are not ready\000"
	.align	2
.LC0:
	.byte	79
	.byte	79
	.byte	79
	.section	.text.led_init,"ax",%progbits
	.align	1
	.global	led_init
	.syntax unified
	.thumb
	.thumb_func
	.type	led_init, %function
led_init:
.LFB763:
	.loc 1 228 1
	.cfi_startproc
	@ args = 0, pretend = 0, frame = 16
	@ frame_needed = 1, uses_anonymous_args = 0
	push	{r7, lr}
	.cfi_def_cfa_offset 8
	.cfi_offset 7, -8
	.cfi_offset 14, -4
	sub	sp, sp, #48
	.cfi_def_cfa_offset 56
	add	r7, sp, #32
	.cfi_def_cfa 7, 24
	.loc 1 229 17
	ldr	r2, .L68
	adds	r3, r7, #4
	ldr	r2, [r2]
	mov	r1, r2	@ movhi
	strh	r1, [r3]	@ movhi
	adds	r3, r3, #2
	lsrs	r2, r2, #16
	strb	r2, [r3]
	.loc 1 230 2
	adds	r3, r7, #4
	mov	r0, r3
	bl	led_set_rgb
	.loc 1 231 25
	movw	r2, #3000
	mov	r3, #0
	.loc 1 231 2
	mov	r0, r2
	mov	r1, r3
	bl	k_sleep
	.loc 1 235 32
	ldr	r3, .L68+4
	.loc 1 235 7
	mov	r0, r3
	bl	device_is_ready
	mov	r3, r0
	.loc 1 235 6
	eor	r3, r3, #1
	uxtb	r3, r3
	.loc 1 235 5
	cmp	r3, #0
	bne	.L62
	.loc 1 235 67 discriminator 1
	ldr	r3, .L68+4
	.loc 1 235 42 discriminator 1
	mov	r0, r3
	bl	device_is_ready
	mov	r3, r0
	.loc 1 235 41 discriminator 1
	eor	r3, r3, #1
	uxtb	r3, r3
	.loc 1 235 38 discriminator 1
	cmp	r3, #0
	bne	.L62
	.loc 1 236 32 discriminator 2
	ldr	r3, .L68+4
	.loc 1 236 7 discriminator 2
	mov	r0, r3
	bl	device_is_ready
	mov	r3, r0
	.loc 1 236 6 discriminator 2
	eor	r3, r3, #1
	uxtb	r3, r3
	.loc 1 235 73 discriminator 2
	cmp	r3, #0
	beq	.L63
.L62:
.LBB7:
	.loc 1 237 12
	movs	r3, #3
	.loc 1 237 11
	cmp	r3, #0
	beq	.L66
	.loc 1 237 23 discriminator 3
	movs	r3, #1
	strb	r3, [r7, #15]
	.loc 1 237 8 discriminator 3
	ldrb	r3, [r7, #15]
	eor	r3, r3, #1
	uxtb	r3, r3
	.loc 1 237 7 discriminator 3
	cmp	r3, #0
	bne	.L67
	.loc 1 237 38 discriminator 4
	ldr	r3, .L68+8
	ldr	r1, [r3]
	ldr	r3, .L68+12
	str	r3, [sp, #8]
	movs	r3, #0
	str	r3, [sp, #4]
	movs	r3, #0
	str	r3, [sp]
	movs	r3, #0
	movs	r2, #1
	movs	r0, #0
	bl	z_log_msg_runtime_create
	.loc 1 237 143 discriminator 4
	movs	r3, #0
	str	r3, [r7, #8]
	b	.L63
.L66:
	.loc 1 237 306
	nop
	b	.L63
.L67:
	.loc 1 237 24
	nop
.L63:
.LBE7:
	.loc 1 240 2
	adds	r3, r7, #4
	mov	r0, r3
	bl	set_rgb_led_brightness
	.loc 1 245 31
	mov	r2, #0
	mov	r3, #0
	.loc 1 243 2
	strd	r2, [sp, #24]
	movs	r3, #0
	str	r3, [sp, #16]
	mov	r3, #-1
	str	r3, [sp, #12]
	movs	r3, #0
	str	r3, [sp, #8]
	movs	r3, #0
	str	r3, [sp, #4]
	movs	r3, #0
	str	r3, [sp]
	ldr	r3, .L68+16
	mov	r2, #1024
	ldr	r1, .L68+20
	ldr	r0, .L68+24
	bl	k_thread_create
	.loc 1 246 1
	nop
	adds	r7, r7, #16
	.cfi_def_cfa_offset 8
	mov	sp, r7
	.cfi_def_cfa_register 13
	@ sp needed
	pop	{r7, pc}
.L69:
	.align	2
.L68:
	.word	.LC0
	.word	__device_dts_ord_60
	.word	__log_current_const_data
	.word	.LC6
	.word	led_serivce_func
	.word	led_serivce_stack
	.word	led_service_thread
	.cfi_endproc
.LFE763:
	.size	led_init, .-led_init
	.section	.rodata
	.align	2
.LC7:
	.ascii	"Board init done.\000"
	.section	.text.board_init,"ax",%progbits
	.align	1
	.global	board_init
	.syntax unified
	.thumb
	.thumb_func
	.type	board_init, %function
board_init:
.LFB764:
	.loc 1 249 1
	.cfi_startproc
	@ args = 0, pretend = 0, frame = 8
	@ frame_needed = 1, uses_anonymous_args = 0
	push	{r7, lr}
	.cfi_def_cfa_offset 8
	.cfi_offset 7, -8
	.cfi_offset 14, -4
	sub	sp, sp, #24
	.cfi_def_cfa_offset 32
	add	r7, sp, #16
	.cfi_def_cfa 7, 16
	.loc 1 250 25
	movw	r2, #5500
	mov	r3, #0
	.loc 1 250 2
	mov	r0, r2
	mov	r1, r3
	bl	k_sleep
	.loc 1 252 2
	bl	led_init
.LBB8:
	.loc 1 253 11
	movs	r3, #3
	.loc 1 253 10
	cmp	r3, #2
	bls	.L75
	.loc 1 253 22 discriminator 3
	movs	r3, #1
	strb	r3, [r7, #7]
	.loc 1 253 7 discriminator 3
	ldrb	r3, [r7, #7]
	eor	r3, r3, #1
	uxtb	r3, r3
	.loc 1 253 6 discriminator 3
	cmp	r3, #0
	bne	.L76
	.loc 1 253 37 discriminator 4
	ldr	r3, .L77
	ldr	r1, [r3]
	ldr	r3, .L77+4
	str	r3, [sp, #8]
	movs	r3, #0
	str	r3, [sp, #4]
	movs	r3, #0
	str	r3, [sp]
	movs	r3, #0
	movs	r2, #3
	movs	r0, #0
	bl	z_log_msg_runtime_create
	.loc 1 253 117 discriminator 4
	movs	r3, #0
	str	r3, [r7]
	b	.L72
.L75:
	.loc 1 253 305
	nop
	b	.L72
.L76:
	.loc 1 253 23
	nop
.L72:
.LBE8:
	.loc 1 254 9
	movs	r1, #0
	mov	r3, r1
	.loc 1 255 1
	mov	r0, r3
	adds	r7, r7, #8
	.cfi_def_cfa_offset 8
	mov	sp, r7
	.cfi_def_cfa_register 13
	@ sp needed
	pop	{r7, pc}
.L78:
	.align	2
.L77:
	.word	__log_current_const_data
	.word	.LC7
	.cfi_endproc
.LFE764:
	.size	board_init, .-board_init
	.section	.z_init_APPLICATION_P_40_SUB_0_,"a"
	.align	2
	.type	__init_board_init, %object
	.size	__init_board_init, 8
__init_board_init:
	.word	board_init
	.word	0
	.section	.rodata.__func__.0,"a"
	.align	2
	.type	__func__.0, %object
	.size	__func__.0, 17
__func__.0:
	.ascii	"led_serivce_func\000"
	.text
.Letext0:
	.file 8 "/home/librgod/zephyr-sdk-0.17.0/arm-zephyr-eabi/picolibc/include/machine/_default_types.h"
	.file 9 "/home/librgod/zephyr-sdk-0.17.0/arm-zephyr-eabi/picolibc/include/sys/_stdint.h"
	.file 10 "/home/librgod/zephyr-sdk-0.17.0/arm-zephyr-eabi/lib/gcc/arm-zephyr-eabi/12.2.0/include/stddef.h"
	.file 11 "/home/librgod/zephyr_workspace/zephyr/include/zephyr/init.h"
	.file 12 "/home/librgod/zephyr_workspace/zephyr/include/zephyr/device.h"
	.file 13 "/home/librgod/zephyr-sdk-0.17.0/arm-zephyr-eabi/lib/gcc/arm-zephyr-eabi/12.2.0/include/stdarg.h"
	.file 14 "/home/librgod/zephyr_workspace/zephyr/include/zephyr/sys/dlist.h"
	.file 15 "/home/librgod/zephyr_workspace/zephyr/include/zephyr/sys_clock.h"
	.file 16 "/home/librgod/zephyr_workspace/zephyr/include/zephyr/sys/sys_heap.h"
	.file 17 "/home/librgod/zephyr_workspace/zephyr/include/zephyr/kernel/stats.h"
	.file 18 "/home/librgod/zephyr_workspace/zephyr/include/zephyr/sys/rb.h"
	.file 19 "/home/librgod/zephyr_workspace/zephyr/include/zephyr/kernel/thread.h"
	.file 20 "/home/librgod/zephyr_workspace/zephyr/include/zephyr/kernel_structs.h"
	.file 21 "/home/librgod/zephyr_workspace/zephyr/include/zephyr/arch/arch_interface.h"
	.file 22 "/home/librgod/zephyr_workspace/zephyr/include/zephyr/kernel/thread_stack.h"
	.file 23 "/home/librgod/zephyr_workspace/zephyr/include/zephyr/arch/arm/thread.h"
	.file 24 "/home/librgod/zephyr_workspace/zephyr/include/zephyr/fatal_types.h"
	.file 25 "/home/librgod/zephyr_workspace/zephyr/include/zephyr/logging/log_instance.h"
	.file 26 "<built-in>"
	.file 27 "/home/librgod/zephyr_workspace/zephyr/include/zephyr/spinlock.h"